

Microchip Technology PIC LITE Macro Assembler V2.00 build -1524193055 
                                                                                               Fri Jan 25 14:55:28 2019

Microchip Technology Omniscient Code Generator v2.00 (Free mode) build 20180527130849
     1  0000                     
      + 0000                     
     2                           ; Version 2.00
     3                           ; Generated 27/05/2018 GMT
     4                           
     5                           ; 
     6                           ; Copyright © 2018, Microchip Technology Inc. and its subsidiaries ("Microchip")
     7                           ; All rights reserved.
     8                           ; 
     9                           ; This software is developed by Microchip Technology Inc. and its subsidiaries ("Microch
                                 ip").
    10                           ; 
    11                           ; Redistribution and use in source and binary forms, with or without modification, are
    12                           ; permitted provided that the following conditions are met:
    13                           ; 
    14                           ;     1. Redistributions of source code must retain the above copyright notice, this lis
                                 t of
    15                           ;        conditions and the following disclaimer.
    16                           ; 
    17                           ;     2. Redistributions in binary form must reproduce the above copyright notice, this 
                                 list
    18                           ;        of conditions and the following disclaimer in the documentation and/or other
    19                           ;        materials provided with the distribution.
    20                           ; 
    21                           ;     3. Microchip's name may not be used to endorse or promote products derived from th
                                 is
    22                           ;        software without specific prior written permission.
    23                           ; 
    24                           ; THIS SOFTWARE IS PROVIDED BY MICROCHIP "AS IS" AND ANY EXPRESS OR IMPLIED WARRANTIES,

    25                           ; INCLUDING, BUT NOT LIMITED TO, THE IMPLIED WARRANTIES OF MERCHANTABILITY AND FITNESS F
                                 OR
    26                           ; PURPOSE ARE DISCLAIMED.  IN NO EVENT SHALL MICROCHIP BE LIABLE FOR ANY DIRECT, INDIREC
                                 T,
    27                           ; INCIDENTAL, SPECIAL, EXEMPLARY, OR CONSEQUENTIAL DAMAGES (INCLUDING BUT NOT LIMITED TO
                                 
    28                           ; PROCUREMENT OF SUBSTITUTE GOODS OR SERVICES; LOSS OF USE, DATA OR PROFITS; OR BUSINESS
                                 
    29                           ; INTERRUPTION) HOWSOEVER CAUSED AND ON ANY THEORY OF LIABILITY, WHETHER IN CONTRACT, ST
                                 RICT
    30                           ; LIABILITY, OR TORT (INCLUDING NEGLIGENCE OR OTHERWISE) ARISING IN ANY WAY OUT OF THE U
                                 SE OF
    31                           ; THIS SOFTWARE, EVEN IF ADVISED OF THE POSSIBILITY OF SUCH DAMAGE.
    32                           ; 
    33                           
    34                           
    35                           ; 
    36                           ; Code-generator required, PIC12F1840 Definitions
    37                           ; 
    38  0008                     fsr0h equ 05h
    39  0005                     fsr0l equ 04h
    40  0004                     fsr1h equ 07h
    41  0007                     fsr1l equ 06h
    42  0006                     indf equ 00h
    43  0000                     indf0 equ 00h
    44  0000                     indf1 equ 01h
    45  0001                     intcon equ 0Bh
    46  000B                     pc equ 02h
    47  0002                     pcl equ 02h
    48  0002                     pclath equ 0Ah
    49  000A                     status equ 03h
    50  0003                     wreg equ 09h
    51  0009                     
     2                           opt pagewidth 120
     3  0000                     byte0	macro	val
     4                           	(getbyte(val,0))
     5                           endm
     6  0000                     byte1	macro	val
     7                           	(getbyte(val,1))
     8                           endm
     9  0000                     byte2	macro	val
    10                           	(getbyte(val,2))
    11                           endm
    12  0000                     byte3	macro	val
    13                           	(getbyte(val,3))
    14                           endm
    15  0000                     byte4	macro	val
    16                           	(getbyte(val,4))
    17                           endm
    18  0000                     byte5	macro	val
    19                           	(getbyte(val,5))
    20                           endm
    21  0000                     byte6	macro	val
    22                           	(getbyte(val,6))
    23                           endm
    24  0000                     byte7	macro	val
    25                           	(getbyte(val,7))
    26                           endm
    27  0000                     getword	macro	val,pos
    28                           	(((val) >> (8 * pos)) and 0xffff)
    29                           endm
    30  0000                     word0	macro	val
    31                           	(getword(val,0))
    32                           endm
    33  0000                     word1	macro	val
    34                           	(getword(val,2))
    35                           endm
    36  0000                     word2	macro	val
    37                           	(getword(val,4))
    38                           endm
    39  0000                     word3	macro	val
    40                           	(getword(val,6))
    41                           endm
    42  0000                     gettword	macro	val,pos
    43                           	(((val) >> (8 * pos)) and 0xffffff)
    44                           endm
    45  0000                     tword0	macro	val
    46                           	(gettword(val,0))
    47                           endm
    48  0000                     tword1	macro	val
    49                           	(gettword(val,3))
    50                           endm
    51  0000                     tword2	macro	val
    52                           	(gettword(val,6))
    53                           endm
    54  0000                     getdword	macro	val,pos
    55                           	(((val) >> (8 * pos)) and 0xffffffff)
    56                           endm
    57  0000                     dword0	macro	val
    58                           	(getdword(val,0))
    59                           endm
    60  0000                     dword1	macro	val
    61                           	(getdword(val,4))
    62                           endm
    63  0000                     clrc	macro
    64                           	bcf	3,0
    65                           	endm
    66  0000                     clrz	macro
    67                           	bcf	3,2
    68                           	endm
    69  0000                     setc	macro
    70                           	bsf	3,0
    71                           	endm
    72  0000                     setz	macro
    73                           	bsf	3,2
    74                           	endm
    75  0000                     skipc	macro
    76                           	btfss	3,0
    77                           	endm
    78  0000                     skipz	macro
    79                           	btfss	3,2
    80                           	endm
    81  0000                     skipnc	macro
    82                           	btfsc	3,0
    83                           	endm
    84  0000                     skipnz	macro
    85                           	btfsc	3,2
    86                           	endm
    87  0000                     pushw	macro
    88                           	movwi fsr1++
    89                           	endm
    90  0000                     popw	macro
    91                           	moviw --fsr1
    92                           	endm
    93  0000                     # 54 "C:\Program Files\Microchip\xc8\v2.00\pic\include\pic12f1840.h"
    94                           INDF0 equ 00h ;# 
    95  0000                     # 74 "C:\Program Files\Microchip\xc8\v2.00\pic\include\pic12f1840.h"
    96                           INDF1 equ 01h ;# 
    97  0001                     # 94 "C:\Program Files\Microchip\xc8\v2.00\pic\include\pic12f1840.h"
    98                           PCL equ 02h ;# 
    99  0002                     # 114 "C:\Program Files\Microchip\xc8\v2.00\pic\include\pic12f1840.h"
   100                           STATUS equ 03h ;# 
   101  0003                     # 177 "C:\Program Files\Microchip\xc8\v2.00\pic\include\pic12f1840.h"
   102                           FSR0L equ 04h ;# 
   103  0004                     # 197 "C:\Program Files\Microchip\xc8\v2.00\pic\include\pic12f1840.h"
   104                           FSR0H equ 05h ;# 
   105  0005                     # 221 "C:\Program Files\Microchip\xc8\v2.00\pic\include\pic12f1840.h"
   106                           FSR1L equ 06h ;# 
   107  0006                     # 241 "C:\Program Files\Microchip\xc8\v2.00\pic\include\pic12f1840.h"
   108                           FSR1H equ 07h ;# 
   109  0007                     # 261 "C:\Program Files\Microchip\xc8\v2.00\pic\include\pic12f1840.h"
   110                           BSR equ 08h ;# 
   111  0008                     # 313 "C:\Program Files\Microchip\xc8\v2.00\pic\include\pic12f1840.h"
   112                           WREG equ 09h ;# 
   113  0009                     # 333 "C:\Program Files\Microchip\xc8\v2.00\pic\include\pic12f1840.h"
   114                           PCLATH equ 0Ah ;# 
   115  000A                     # 353 "C:\Program Files\Microchip\xc8\v2.00\pic\include\pic12f1840.h"
   116                           INTCON equ 0Bh ;# 
   117  000B                     # 431 "C:\Program Files\Microchip\xc8\v2.00\pic\include\pic12f1840.h"
   118                           PORTA equ 0Ch ;# 
   119  000C                     # 481 "C:\Program Files\Microchip\xc8\v2.00\pic\include\pic12f1840.h"
   120                           PIR1 equ 011h ;# 
   121  0011                     # 543 "C:\Program Files\Microchip\xc8\v2.00\pic\include\pic12f1840.h"
   122                           PIR2 equ 012h ;# 
   123  0012                     # 583 "C:\Program Files\Microchip\xc8\v2.00\pic\include\pic12f1840.h"
   124                           TMR0 equ 015h ;# 
   125  0015                     # 603 "C:\Program Files\Microchip\xc8\v2.00\pic\include\pic12f1840.h"
   126                           TMR1 equ 016h ;# 
   127  0016                     # 610 "C:\Program Files\Microchip\xc8\v2.00\pic\include\pic12f1840.h"
   128                           TMR1L equ 016h ;# 
   129  0016                     # 630 "C:\Program Files\Microchip\xc8\v2.00\pic\include\pic12f1840.h"
   130                           TMR1H equ 017h ;# 
   131  0017                     # 650 "C:\Program Files\Microchip\xc8\v2.00\pic\include\pic12f1840.h"
   132                           T1CON equ 018h ;# 
   133  0018                     # 722 "C:\Program Files\Microchip\xc8\v2.00\pic\include\pic12f1840.h"
   134                           T1GCON equ 019h ;# 
   135  0019                     # 799 "C:\Program Files\Microchip\xc8\v2.00\pic\include\pic12f1840.h"
   136                           TMR2 equ 01Ah ;# 
   137  001A                     # 819 "C:\Program Files\Microchip\xc8\v2.00\pic\include\pic12f1840.h"
   138                           PR2 equ 01Bh ;# 
   139  001B                     # 839 "C:\Program Files\Microchip\xc8\v2.00\pic\include\pic12f1840.h"
   140                           T2CON equ 01Ch ;# 
   141  001C                     # 910 "C:\Program Files\Microchip\xc8\v2.00\pic\include\pic12f1840.h"
   142                           CPSCON0 equ 01Eh ;# 
   143  001E                     # 970 "C:\Program Files\Microchip\xc8\v2.00\pic\include\pic12f1840.h"
   144                           CPSCON1 equ 01Fh ;# 
   145  001F                     # 1004 "C:\Program Files\Microchip\xc8\v2.00\pic\include\pic12f1840.h"
   146                           TRISA equ 08Ch ;# 
   147  008C                     # 1054 "C:\Program Files\Microchip\xc8\v2.00\pic\include\pic12f1840.h"
   148                           PIE1 equ 091h ;# 
   149  0091                     # 1116 "C:\Program Files\Microchip\xc8\v2.00\pic\include\pic12f1840.h"
   150                           PIE2 equ 092h ;# 
   151  0092                     # 1156 "C:\Program Files\Microchip\xc8\v2.00\pic\include\pic12f1840.h"
   152                           OPTION_REG equ 095h ;# 
   153  0095                     # 1239 "C:\Program Files\Microchip\xc8\v2.00\pic\include\pic12f1840.h"
   154                           PCON equ 096h ;# 
   155  0096                     # 1290 "C:\Program Files\Microchip\xc8\v2.00\pic\include\pic12f1840.h"
   156                           WDTCON equ 097h ;# 
   157  0097                     # 1349 "C:\Program Files\Microchip\xc8\v2.00\pic\include\pic12f1840.h"
   158                           OSCTUNE equ 098h ;# 
   159  0098                     # 1407 "C:\Program Files\Microchip\xc8\v2.00\pic\include\pic12f1840.h"
   160                           OSCCON equ 099h ;# 
   161  0099                     # 1479 "C:\Program Files\Microchip\xc8\v2.00\pic\include\pic12f1840.h"
   162                           OSCSTAT equ 09Ah ;# 
   163  009A                     # 1541 "C:\Program Files\Microchip\xc8\v2.00\pic\include\pic12f1840.h"
   164                           ADRES equ 09Bh ;# 
   165  009B                     # 1548 "C:\Program Files\Microchip\xc8\v2.00\pic\include\pic12f1840.h"
   166                           ADRESL equ 09Bh ;# 
   167  009B                     # 1568 "C:\Program Files\Microchip\xc8\v2.00\pic\include\pic12f1840.h"
   168                           ADRESH equ 09Ch ;# 
   169  009C                     # 1588 "C:\Program Files\Microchip\xc8\v2.00\pic\include\pic12f1840.h"
   170                           ADCON0 equ 09Dh ;# 
   171  009D                     # 1668 "C:\Program Files\Microchip\xc8\v2.00\pic\include\pic12f1840.h"
   172                           ADCON1 equ 09Eh ;# 
   173  009E                     # 1734 "C:\Program Files\Microchip\xc8\v2.00\pic\include\pic12f1840.h"
   174                           LATA equ 010Ch ;# 
   175  010C                     # 1779 "C:\Program Files\Microchip\xc8\v2.00\pic\include\pic12f1840.h"
   176                           CM1CON0 equ 0111h ;# 
   177  0111                     # 1836 "C:\Program Files\Microchip\xc8\v2.00\pic\include\pic12f1840.h"
   178                           CM1CON1 equ 0112h ;# 
   179  0112                     # 1896 "C:\Program Files\Microchip\xc8\v2.00\pic\include\pic12f1840.h"
   180                           CMOUT equ 0115h ;# 
   181  0115                     # 1916 "C:\Program Files\Microchip\xc8\v2.00\pic\include\pic12f1840.h"
   182                           BORCON equ 0116h ;# 
   183  0116                     # 1949 "C:\Program Files\Microchip\xc8\v2.00\pic\include\pic12f1840.h"
   184                           FVRCON equ 0117h ;# 
   185  0117                     # 2025 "C:\Program Files\Microchip\xc8\v2.00\pic\include\pic12f1840.h"
   186                           DACCON0 equ 0118h ;# 
   187  0118                     # 2080 "C:\Program Files\Microchip\xc8\v2.00\pic\include\pic12f1840.h"
   188                           DACCON1 equ 0119h ;# 
   189  0119                     # 2132 "C:\Program Files\Microchip\xc8\v2.00\pic\include\pic12f1840.h"
   190                           SRCON0 equ 011Ah ;# 
   191  011A                     # 2203 "C:\Program Files\Microchip\xc8\v2.00\pic\include\pic12f1840.h"
   192                           SRCON1 equ 011Bh ;# 
   193  011B                     # 2255 "C:\Program Files\Microchip\xc8\v2.00\pic\include\pic12f1840.h"
   194                           APFCON equ 011Dh ;# 
   195  011D                     # 2260 "C:\Program Files\Microchip\xc8\v2.00\pic\include\pic12f1840.h"
   196                           APFCON0 equ 011Dh ;# 
   197  011D                     # 2397 "C:\Program Files\Microchip\xc8\v2.00\pic\include\pic12f1840.h"
   198                           ANSELA equ 018Ch ;# 
   199  018C                     # 2444 "C:\Program Files\Microchip\xc8\v2.00\pic\include\pic12f1840.h"
   200                           EEADR equ 0191h ;# 
   201  0191                     # 2451 "C:\Program Files\Microchip\xc8\v2.00\pic\include\pic12f1840.h"
   202                           EEADRL equ 0191h ;# 
   203  0191                     # 2471 "C:\Program Files\Microchip\xc8\v2.00\pic\include\pic12f1840.h"
   204                           EEADRH equ 0192h ;# 
   205  0192                     # 2491 "C:\Program Files\Microchip\xc8\v2.00\pic\include\pic12f1840.h"
   206                           EEDAT equ 0193h ;# 
   207  0193                     # 2498 "C:\Program Files\Microchip\xc8\v2.00\pic\include\pic12f1840.h"
   208                           EEDATL equ 0193h ;# 
   209  0193                     # 2503 "C:\Program Files\Microchip\xc8\v2.00\pic\include\pic12f1840.h"
   210                           EEDATA equ 0193h ;# 
   211  0193                     # 2536 "C:\Program Files\Microchip\xc8\v2.00\pic\include\pic12f1840.h"
   212                           EEDATH equ 0194h ;# 
   213  0194                     # 2556 "C:\Program Files\Microchip\xc8\v2.00\pic\include\pic12f1840.h"
   214                           EECON1 equ 0195h ;# 
   215  0195                     # 2618 "C:\Program Files\Microchip\xc8\v2.00\pic\include\pic12f1840.h"
   216                           EECON2 equ 0196h ;# 
   217  0196                     # 2638 "C:\Program Files\Microchip\xc8\v2.00\pic\include\pic12f1840.h"
   218                           VREGCON equ 0197h ;# 
   219  0197                     # 2672 "C:\Program Files\Microchip\xc8\v2.00\pic\include\pic12f1840.h"
   220                           RCREG equ 0199h ;# 
   221  0199                     # 2692 "C:\Program Files\Microchip\xc8\v2.00\pic\include\pic12f1840.h"
   222                           TXREG equ 019Ah ;# 
   223  019A                     # 2712 "C:\Program Files\Microchip\xc8\v2.00\pic\include\pic12f1840.h"
   224                           SP1BRG equ 019Bh ;# 
   225  019B                     # 2719 "C:\Program Files\Microchip\xc8\v2.00\pic\include\pic12f1840.h"
   226                           SP1BRGL equ 019Bh ;# 
   227  019B                     # 2724 "C:\Program Files\Microchip\xc8\v2.00\pic\include\pic12f1840.h"
   228                           SPBRG equ 019Bh ;# 
   229  019B                     # 2728 "C:\Program Files\Microchip\xc8\v2.00\pic\include\pic12f1840.h"
   230                           SPBRGL equ 019Bh ;# 
   231  019B                     # 2773 "C:\Program Files\Microchip\xc8\v2.00\pic\include\pic12f1840.h"
   232                           SP1BRGH equ 019Ch ;# 
   233  019C                     # 2778 "C:\Program Files\Microchip\xc8\v2.00\pic\include\pic12f1840.h"
   234                           SPBRGH equ 019Ch ;# 
   235  019C                     # 2811 "C:\Program Files\Microchip\xc8\v2.00\pic\include\pic12f1840.h"
   236                           RCSTA equ 019Dh ;# 
   237  019D                     # 2873 "C:\Program Files\Microchip\xc8\v2.00\pic\include\pic12f1840.h"
   238                           TXSTA equ 019Eh ;# 
   239  019E                     # 2935 "C:\Program Files\Microchip\xc8\v2.00\pic\include\pic12f1840.h"
   240                           BAUDCON equ 019Fh ;# 
   241  019F                     # 2987 "C:\Program Files\Microchip\xc8\v2.00\pic\include\pic12f1840.h"
   242                           WPUA equ 020Ch ;# 
   243  020C                     # 3045 "C:\Program Files\Microchip\xc8\v2.00\pic\include\pic12f1840.h"
   244                           SSP1BUF equ 0211h ;# 
   245  0211                     # 3050 "C:\Program Files\Microchip\xc8\v2.00\pic\include\pic12f1840.h"
   246                           SSPBUF equ 0211h ;# 
   247  0211                     # 3083 "C:\Program Files\Microchip\xc8\v2.00\pic\include\pic12f1840.h"
   248                           SSP1ADD equ 0212h ;# 
   249  0212                     # 3088 "C:\Program Files\Microchip\xc8\v2.00\pic\include\pic12f1840.h"
   250                           SSPADD equ 0212h ;# 
   251  0212                     # 3121 "C:\Program Files\Microchip\xc8\v2.00\pic\include\pic12f1840.h"
   252                           SSP1MSK equ 0213h ;# 
   253  0213                     # 3126 "C:\Program Files\Microchip\xc8\v2.00\pic\include\pic12f1840.h"
   254                           SSPMSK equ 0213h ;# 
   255  0213                     # 3159 "C:\Program Files\Microchip\xc8\v2.00\pic\include\pic12f1840.h"
   256                           SSP1STAT equ 0214h ;# 
   257  0214                     # 3164 "C:\Program Files\Microchip\xc8\v2.00\pic\include\pic12f1840.h"
   258                           SSPSTAT equ 0214h ;# 
   259  0214                     # 3281 "C:\Program Files\Microchip\xc8\v2.00\pic\include\pic12f1840.h"
   260                           SSP1CON1 equ 0215h ;# 
   261  0215                     # 3286 "C:\Program Files\Microchip\xc8\v2.00\pic\include\pic12f1840.h"
   262                           SSPCON1 equ 0215h ;# 
   263  0215                     # 3290 "C:\Program Files\Microchip\xc8\v2.00\pic\include\pic12f1840.h"
   264                           SSPCON equ 0215h ;# 
   265  0215                     # 3485 "C:\Program Files\Microchip\xc8\v2.00\pic\include\pic12f1840.h"
   266                           SSP1CON2 equ 0216h ;# 
   267  0216                     # 3490 "C:\Program Files\Microchip\xc8\v2.00\pic\include\pic12f1840.h"
   268                           SSPCON2 equ 0216h ;# 
   269  0216                     # 3607 "C:\Program Files\Microchip\xc8\v2.00\pic\include\pic12f1840.h"
   270                           SSP1CON3 equ 0217h ;# 
   271  0217                     # 3612 "C:\Program Files\Microchip\xc8\v2.00\pic\include\pic12f1840.h"
   272                           SSPCON3 equ 0217h ;# 
   273  0217                     # 3729 "C:\Program Files\Microchip\xc8\v2.00\pic\include\pic12f1840.h"
   274                           CCPR1 equ 0291h ;# 
   275  0291                     # 3736 "C:\Program Files\Microchip\xc8\v2.00\pic\include\pic12f1840.h"
   276                           CCPR1L equ 0291h ;# 
   277  0291                     # 3756 "C:\Program Files\Microchip\xc8\v2.00\pic\include\pic12f1840.h"
   278                           CCPR1H equ 0292h ;# 
   279  0292                     # 3776 "C:\Program Files\Microchip\xc8\v2.00\pic\include\pic12f1840.h"
   280                           CCP1CON equ 0293h ;# 
   281  0293                     # 3858 "C:\Program Files\Microchip\xc8\v2.00\pic\include\pic12f1840.h"
   282                           PWM1CON equ 0294h ;# 
   283  0294                     # 3928 "C:\Program Files\Microchip\xc8\v2.00\pic\include\pic12f1840.h"
   284                           CCP1AS equ 0295h ;# 
   285  0295                     # 3933 "C:\Program Files\Microchip\xc8\v2.00\pic\include\pic12f1840.h"
   286                           ECCP1AS equ 0295h ;# 
   287  0295                     # 4090 "C:\Program Files\Microchip\xc8\v2.00\pic\include\pic12f1840.h"
   288                           PSTR1CON equ 0296h ;# 
   289  0296                     # 4124 "C:\Program Files\Microchip\xc8\v2.00\pic\include\pic12f1840.h"
   290                           IOCAP equ 0391h ;# 
   291  0391                     # 4182 "C:\Program Files\Microchip\xc8\v2.00\pic\include\pic12f1840.h"
   292                           IOCAN equ 0392h ;# 
   293  0392                     # 4240 "C:\Program Files\Microchip\xc8\v2.00\pic\include\pic12f1840.h"
   294                           IOCAF equ 0393h ;# 
   295  0393                     # 4298 "C:\Program Files\Microchip\xc8\v2.00\pic\include\pic12f1840.h"
   296                           CLKRCON equ 039Ah ;# 
   297  039A                     # 4374 "C:\Program Files\Microchip\xc8\v2.00\pic\include\pic12f1840.h"
   298                           MDCON equ 039Ch ;# 
   299  039C                     # 4425 "C:\Program Files\Microchip\xc8\v2.00\pic\include\pic12f1840.h"
   300                           MDSRC equ 039Dh ;# 
   301  039D                     # 4478 "C:\Program Files\Microchip\xc8\v2.00\pic\include\pic12f1840.h"
   302                           MDCARL equ 039Eh ;# 
   303  039E                     # 4543 "C:\Program Files\Microchip\xc8\v2.00\pic\include\pic12f1840.h"
   304                           MDCARH equ 039Fh ;# 
   305  039F                     # 4608 "C:\Program Files\Microchip\xc8\v2.00\pic\include\pic12f1840.h"
   306                           STATUS_SHAD equ 0FE4h ;# 
   307  0FE4                     # 4640 "C:\Program Files\Microchip\xc8\v2.00\pic\include\pic12f1840.h"
   308                           WREG_SHAD equ 0FE5h ;# 
   309  0FE5                     # 4660 "C:\Program Files\Microchip\xc8\v2.00\pic\include\pic12f1840.h"
   310                           BSR_SHAD equ 0FE6h ;# 
   311  0FE6                     # 4680 "C:\Program Files\Microchip\xc8\v2.00\pic\include\pic12f1840.h"
   312                           PCLATH_SHAD equ 0FE7h ;# 
   313  0FE7                     # 4700 "C:\Program Files\Microchip\xc8\v2.00\pic\include\pic12f1840.h"
   314                           FSR0L_SHAD equ 0FE8h ;# 
   315  0FE8                     # 4720 "C:\Program Files\Microchip\xc8\v2.00\pic\include\pic12f1840.h"
   316                           FSR0H_SHAD equ 0FE9h ;# 
   317  0FE9                     # 4740 "C:\Program Files\Microchip\xc8\v2.00\pic\include\pic12f1840.h"
   318                           FSR1L_SHAD equ 0FEAh ;# 
   319  0FEA                     # 4760 "C:\Program Files\Microchip\xc8\v2.00\pic\include\pic12f1840.h"
   320                           FSR1H_SHAD equ 0FEBh ;# 
   321  0FEB                     # 4780 "C:\Program Files\Microchip\xc8\v2.00\pic\include\pic12f1840.h"
   322                           STKPTR equ 0FEDh ;# 
   323  0FED                     # 4800 "C:\Program Files\Microchip\xc8\v2.00\pic\include\pic12f1840.h"
   324                           TOSL equ 0FEEh ;# 
   325  0FEE                     # 4820 "C:\Program Files\Microchip\xc8\v2.00\pic\include\pic12f1840.h"
   326                           TOSH equ 0FEFh ;# 
   327  0FEF                     # 54 "C:\Program Files\Microchip\xc8\v2.00\pic\include\pic12f1840.h"
   328                           INDF0 equ 00h ;# 
   329  0000                     # 74 "C:\Program Files\Microchip\xc8\v2.00\pic\include\pic12f1840.h"
   330                           INDF1 equ 01h ;# 
   331  0001                     # 94 "C:\Program Files\Microchip\xc8\v2.00\pic\include\pic12f1840.h"
   332                           PCL equ 02h ;# 
   333  0002                     # 114 "C:\Program Files\Microchip\xc8\v2.00\pic\include\pic12f1840.h"
   334                           STATUS equ 03h ;# 
   335  0003                     # 177 "C:\Program Files\Microchip\xc8\v2.00\pic\include\pic12f1840.h"
   336                           FSR0L equ 04h ;# 
   337  0004                     # 197 "C:\Program Files\Microchip\xc8\v2.00\pic\include\pic12f1840.h"
   338                           FSR0H equ 05h ;# 
   339  0005                     # 221 "C:\Program Files\Microchip\xc8\v2.00\pic\include\pic12f1840.h"
   340                           FSR1L equ 06h ;# 
   341  0006                     # 241 "C:\Program Files\Microchip\xc8\v2.00\pic\include\pic12f1840.h"
   342                           FSR1H equ 07h ;# 
   343  0007                     # 261 "C:\Program Files\Microchip\xc8\v2.00\pic\include\pic12f1840.h"
   344                           BSR equ 08h ;# 
   345  0008                     # 313 "C:\Program Files\Microchip\xc8\v2.00\pic\include\pic12f1840.h"
   346                           WREG equ 09h ;# 
   347  0009                     # 333 "C:\Program Files\Microchip\xc8\v2.00\pic\include\pic12f1840.h"
   348                           PCLATH equ 0Ah ;# 
   349  000A                     # 353 "C:\Program Files\Microchip\xc8\v2.00\pic\include\pic12f1840.h"
   350                           INTCON equ 0Bh ;# 
   351  000B                     # 431 "C:\Program Files\Microchip\xc8\v2.00\pic\include\pic12f1840.h"
   352                           PORTA equ 0Ch ;# 
   353  000C                     # 481 "C:\Program Files\Microchip\xc8\v2.00\pic\include\pic12f1840.h"
   354                           PIR1 equ 011h ;# 
   355  0011                     # 543 "C:\Program Files\Microchip\xc8\v2.00\pic\include\pic12f1840.h"
   356                           PIR2 equ 012h ;# 
   357  0012                     # 583 "C:\Program Files\Microchip\xc8\v2.00\pic\include\pic12f1840.h"
   358                           TMR0 equ 015h ;# 
   359  0015                     # 603 "C:\Program Files\Microchip\xc8\v2.00\pic\include\pic12f1840.h"
   360                           TMR1 equ 016h ;# 
   361  0016                     # 610 "C:\Program Files\Microchip\xc8\v2.00\pic\include\pic12f1840.h"
   362                           TMR1L equ 016h ;# 
   363  0016                     # 630 "C:\Program Files\Microchip\xc8\v2.00\pic\include\pic12f1840.h"
   364                           TMR1H equ 017h ;# 
   365  0017                     # 650 "C:\Program Files\Microchip\xc8\v2.00\pic\include\pic12f1840.h"
   366                           T1CON equ 018h ;# 
   367  0018                     # 722 "C:\Program Files\Microchip\xc8\v2.00\pic\include\pic12f1840.h"
   368                           T1GCON equ 019h ;# 
   369  0019                     # 799 "C:\Program Files\Microchip\xc8\v2.00\pic\include\pic12f1840.h"
   370                           TMR2 equ 01Ah ;# 
   371  001A                     # 819 "C:\Program Files\Microchip\xc8\v2.00\pic\include\pic12f1840.h"
   372                           PR2 equ 01Bh ;# 
   373  001B                     # 839 "C:\Program Files\Microchip\xc8\v2.00\pic\include\pic12f1840.h"
   374                           T2CON equ 01Ch ;# 
   375  001C                     # 910 "C:\Program Files\Microchip\xc8\v2.00\pic\include\pic12f1840.h"
   376                           CPSCON0 equ 01Eh ;# 
   377  001E                     # 970 "C:\Program Files\Microchip\xc8\v2.00\pic\include\pic12f1840.h"
   378                           CPSCON1 equ 01Fh ;# 
   379  001F                     # 1004 "C:\Program Files\Microchip\xc8\v2.00\pic\include\pic12f1840.h"
   380                           TRISA equ 08Ch ;# 
   381  008C                     # 1054 "C:\Program Files\Microchip\xc8\v2.00\pic\include\pic12f1840.h"
   382                           PIE1 equ 091h ;# 
   383  0091                     # 1116 "C:\Program Files\Microchip\xc8\v2.00\pic\include\pic12f1840.h"
   384                           PIE2 equ 092h ;# 
   385  0092                     # 1156 "C:\Program Files\Microchip\xc8\v2.00\pic\include\pic12f1840.h"
   386                           OPTION_REG equ 095h ;# 
   387  0095                     # 1239 "C:\Program Files\Microchip\xc8\v2.00\pic\include\pic12f1840.h"
   388                           PCON equ 096h ;# 
   389  0096                     # 1290 "C:\Program Files\Microchip\xc8\v2.00\pic\include\pic12f1840.h"
   390                           WDTCON equ 097h ;# 
   391  0097                     # 1349 "C:\Program Files\Microchip\xc8\v2.00\pic\include\pic12f1840.h"
   392                           OSCTUNE equ 098h ;# 
   393  0098                     # 1407 "C:\Program Files\Microchip\xc8\v2.00\pic\include\pic12f1840.h"
   394                           OSCCON equ 099h ;# 
   395  0099                     # 1479 "C:\Program Files\Microchip\xc8\v2.00\pic\include\pic12f1840.h"
   396                           OSCSTAT equ 09Ah ;# 
   397  009A                     # 1541 "C:\Program Files\Microchip\xc8\v2.00\pic\include\pic12f1840.h"
   398                           ADRES equ 09Bh ;# 
   399  009B                     # 1548 "C:\Program Files\Microchip\xc8\v2.00\pic\include\pic12f1840.h"
   400                           ADRESL equ 09Bh ;# 
   401  009B                     # 1568 "C:\Program Files\Microchip\xc8\v2.00\pic\include\pic12f1840.h"
   402                           ADRESH equ 09Ch ;# 
   403  009C                     # 1588 "C:\Program Files\Microchip\xc8\v2.00\pic\include\pic12f1840.h"
   404                           ADCON0 equ 09Dh ;# 
   405  009D                     # 1668 "C:\Program Files\Microchip\xc8\v2.00\pic\include\pic12f1840.h"
   406                           ADCON1 equ 09Eh ;# 
   407  009E                     # 1734 "C:\Program Files\Microchip\xc8\v2.00\pic\include\pic12f1840.h"
   408                           LATA equ 010Ch ;# 
   409  010C                     # 1779 "C:\Program Files\Microchip\xc8\v2.00\pic\include\pic12f1840.h"
   410                           CM1CON0 equ 0111h ;# 
   411  0111                     # 1836 "C:\Program Files\Microchip\xc8\v2.00\pic\include\pic12f1840.h"
   412                           CM1CON1 equ 0112h ;# 
   413  0112                     # 1896 "C:\Program Files\Microchip\xc8\v2.00\pic\include\pic12f1840.h"
   414                           CMOUT equ 0115h ;# 
   415  0115                     # 1916 "C:\Program Files\Microchip\xc8\v2.00\pic\include\pic12f1840.h"
   416                           BORCON equ 0116h ;# 
   417  0116                     # 1949 "C:\Program Files\Microchip\xc8\v2.00\pic\include\pic12f1840.h"
   418                           FVRCON equ 0117h ;# 
   419  0117                     # 2025 "C:\Program Files\Microchip\xc8\v2.00\pic\include\pic12f1840.h"
   420                           DACCON0 equ 0118h ;# 
   421  0118                     # 2080 "C:\Program Files\Microchip\xc8\v2.00\pic\include\pic12f1840.h"
   422                           DACCON1 equ 0119h ;# 
   423  0119                     # 2132 "C:\Program Files\Microchip\xc8\v2.00\pic\include\pic12f1840.h"
   424                           SRCON0 equ 011Ah ;# 
   425  011A                     # 2203 "C:\Program Files\Microchip\xc8\v2.00\pic\include\pic12f1840.h"
   426                           SRCON1 equ 011Bh ;# 
   427  011B                     # 2255 "C:\Program Files\Microchip\xc8\v2.00\pic\include\pic12f1840.h"
   428                           APFCON equ 011Dh ;# 
   429  011D                     # 2260 "C:\Program Files\Microchip\xc8\v2.00\pic\include\pic12f1840.h"
   430                           APFCON0 equ 011Dh ;# 
   431  011D                     # 2397 "C:\Program Files\Microchip\xc8\v2.00\pic\include\pic12f1840.h"
   432                           ANSELA equ 018Ch ;# 
   433  018C                     # 2444 "C:\Program Files\Microchip\xc8\v2.00\pic\include\pic12f1840.h"
   434                           EEADR equ 0191h ;# 
   435  0191                     # 2451 "C:\Program Files\Microchip\xc8\v2.00\pic\include\pic12f1840.h"
   436                           EEADRL equ 0191h ;# 
   437  0191                     # 2471 "C:\Program Files\Microchip\xc8\v2.00\pic\include\pic12f1840.h"
   438                           EEADRH equ 0192h ;# 
   439  0192                     # 2491 "C:\Program Files\Microchip\xc8\v2.00\pic\include\pic12f1840.h"
   440                           EEDAT equ 0193h ;# 
   441  0193                     # 2498 "C:\Program Files\Microchip\xc8\v2.00\pic\include\pic12f1840.h"
   442                           EEDATL equ 0193h ;# 
   443  0193                     # 2503 "C:\Program Files\Microchip\xc8\v2.00\pic\include\pic12f1840.h"
   444                           EEDATA equ 0193h ;# 
   445  0193                     # 2536 "C:\Program Files\Microchip\xc8\v2.00\pic\include\pic12f1840.h"
   446                           EEDATH equ 0194h ;# 
   447  0194                     # 2556 "C:\Program Files\Microchip\xc8\v2.00\pic\include\pic12f1840.h"
   448                           EECON1 equ 0195h ;# 
   449  0195                     # 2618 "C:\Program Files\Microchip\xc8\v2.00\pic\include\pic12f1840.h"
   450                           EECON2 equ 0196h ;# 
   451  0196                     # 2638 "C:\Program Files\Microchip\xc8\v2.00\pic\include\pic12f1840.h"
   452                           VREGCON equ 0197h ;# 
   453  0197                     # 2672 "C:\Program Files\Microchip\xc8\v2.00\pic\include\pic12f1840.h"
   454                           RCREG equ 0199h ;# 
   455  0199                     # 2692 "C:\Program Files\Microchip\xc8\v2.00\pic\include\pic12f1840.h"
   456                           TXREG equ 019Ah ;# 
   457  019A                     # 2712 "C:\Program Files\Microchip\xc8\v2.00\pic\include\pic12f1840.h"
   458                           SP1BRG equ 019Bh ;# 
   459  019B                     # 2719 "C:\Program Files\Microchip\xc8\v2.00\pic\include\pic12f1840.h"
   460                           SP1BRGL equ 019Bh ;# 
   461  019B                     # 2724 "C:\Program Files\Microchip\xc8\v2.00\pic\include\pic12f1840.h"
   462                           SPBRG equ 019Bh ;# 
   463  019B                     # 2728 "C:\Program Files\Microchip\xc8\v2.00\pic\include\pic12f1840.h"
   464                           SPBRGL equ 019Bh ;# 
   465  019B                     # 2773 "C:\Program Files\Microchip\xc8\v2.00\pic\include\pic12f1840.h"
   466                           SP1BRGH equ 019Ch ;# 
   467  019C                     # 2778 "C:\Program Files\Microchip\xc8\v2.00\pic\include\pic12f1840.h"
   468                           SPBRGH equ 019Ch ;# 
   469  019C                     # 2811 "C:\Program Files\Microchip\xc8\v2.00\pic\include\pic12f1840.h"
   470                           RCSTA equ 019Dh ;# 
   471  019D                     # 2873 "C:\Program Files\Microchip\xc8\v2.00\pic\include\pic12f1840.h"
   472                           TXSTA equ 019Eh ;# 
   473  019E                     # 2935 "C:\Program Files\Microchip\xc8\v2.00\pic\include\pic12f1840.h"
   474                           BAUDCON equ 019Fh ;# 
   475  019F                     # 2987 "C:\Program Files\Microchip\xc8\v2.00\pic\include\pic12f1840.h"
   476                           WPUA equ 020Ch ;# 
   477  020C                     # 3045 "C:\Program Files\Microchip\xc8\v2.00\pic\include\pic12f1840.h"
   478                           SSP1BUF equ 0211h ;# 
   479  0211                     # 3050 "C:\Program Files\Microchip\xc8\v2.00\pic\include\pic12f1840.h"
   480                           SSPBUF equ 0211h ;# 
   481  0211                     # 3083 "C:\Program Files\Microchip\xc8\v2.00\pic\include\pic12f1840.h"
   482                           SSP1ADD equ 0212h ;# 
   483  0212                     # 3088 "C:\Program Files\Microchip\xc8\v2.00\pic\include\pic12f1840.h"
   484                           SSPADD equ 0212h ;# 
   485  0212                     # 3121 "C:\Program Files\Microchip\xc8\v2.00\pic\include\pic12f1840.h"
   486                           SSP1MSK equ 0213h ;# 
   487  0213                     # 3126 "C:\Program Files\Microchip\xc8\v2.00\pic\include\pic12f1840.h"
   488                           SSPMSK equ 0213h ;# 
   489  0213                     # 3159 "C:\Program Files\Microchip\xc8\v2.00\pic\include\pic12f1840.h"
   490                           SSP1STAT equ 0214h ;# 
   491  0214                     # 3164 "C:\Program Files\Microchip\xc8\v2.00\pic\include\pic12f1840.h"
   492                           SSPSTAT equ 0214h ;# 
   493  0214                     # 3281 "C:\Program Files\Microchip\xc8\v2.00\pic\include\pic12f1840.h"
   494                           SSP1CON1 equ 0215h ;# 
   495  0215                     # 3286 "C:\Program Files\Microchip\xc8\v2.00\pic\include\pic12f1840.h"
   496                           SSPCON1 equ 0215h ;# 
   497  0215                     # 3290 "C:\Program Files\Microchip\xc8\v2.00\pic\include\pic12f1840.h"
   498                           SSPCON equ 0215h ;# 
   499  0215                     # 3485 "C:\Program Files\Microchip\xc8\v2.00\pic\include\pic12f1840.h"
   500                           SSP1CON2 equ 0216h ;# 
   501  0216                     # 3490 "C:\Program Files\Microchip\xc8\v2.00\pic\include\pic12f1840.h"
   502                           SSPCON2 equ 0216h ;# 
   503  0216                     # 3607 "C:\Program Files\Microchip\xc8\v2.00\pic\include\pic12f1840.h"
   504                           SSP1CON3 equ 0217h ;# 
   505  0217                     # 3612 "C:\Program Files\Microchip\xc8\v2.00\pic\include\pic12f1840.h"
   506                           SSPCON3 equ 0217h ;# 
   507  0217                     # 3729 "C:\Program Files\Microchip\xc8\v2.00\pic\include\pic12f1840.h"
   508                           CCPR1 equ 0291h ;# 
   509  0291                     # 3736 "C:\Program Files\Microchip\xc8\v2.00\pic\include\pic12f1840.h"
   510                           CCPR1L equ 0291h ;# 
   511  0291                     # 3756 "C:\Program Files\Microchip\xc8\v2.00\pic\include\pic12f1840.h"
   512                           CCPR1H equ 0292h ;# 
   513  0292                     # 3776 "C:\Program Files\Microchip\xc8\v2.00\pic\include\pic12f1840.h"
   514                           CCP1CON equ 0293h ;# 
   515  0293                     # 3858 "C:\Program Files\Microchip\xc8\v2.00\pic\include\pic12f1840.h"
   516                           PWM1CON equ 0294h ;# 
   517  0294                     # 3928 "C:\Program Files\Microchip\xc8\v2.00\pic\include\pic12f1840.h"
   518                           CCP1AS equ 0295h ;# 
   519  0295                     # 3933 "C:\Program Files\Microchip\xc8\v2.00\pic\include\pic12f1840.h"
   520                           ECCP1AS equ 0295h ;# 
   521  0295                     # 4090 "C:\Program Files\Microchip\xc8\v2.00\pic\include\pic12f1840.h"
   522                           PSTR1CON equ 0296h ;# 
   523  0296                     # 4124 "C:\Program Files\Microchip\xc8\v2.00\pic\include\pic12f1840.h"
   524                           IOCAP equ 0391h ;# 
   525  0391                     # 4182 "C:\Program Files\Microchip\xc8\v2.00\pic\include\pic12f1840.h"
   526                           IOCAN equ 0392h ;# 
   527  0392                     # 4240 "C:\Program Files\Microchip\xc8\v2.00\pic\include\pic12f1840.h"
   528                           IOCAF equ 0393h ;# 
   529  0393                     # 4298 "C:\Program Files\Microchip\xc8\v2.00\pic\include\pic12f1840.h"
   530                           CLKRCON equ 039Ah ;# 
   531  039A                     # 4374 "C:\Program Files\Microchip\xc8\v2.00\pic\include\pic12f1840.h"
   532                           MDCON equ 039Ch ;# 
   533  039C                     # 4425 "C:\Program Files\Microchip\xc8\v2.00\pic\include\pic12f1840.h"
   534                           MDSRC equ 039Dh ;# 
   535  039D                     # 4478 "C:\Program Files\Microchip\xc8\v2.00\pic\include\pic12f1840.h"
   536                           MDCARL equ 039Eh ;# 
   537  039E                     # 4543 "C:\Program Files\Microchip\xc8\v2.00\pic\include\pic12f1840.h"
   538                           MDCARH equ 039Fh ;# 
   539  039F                     # 4608 "C:\Program Files\Microchip\xc8\v2.00\pic\include\pic12f1840.h"
   540                           STATUS_SHAD equ 0FE4h ;# 
   541  0FE4                     # 4640 "C:\Program Files\Microchip\xc8\v2.00\pic\include\pic12f1840.h"
   542                           WREG_SHAD equ 0FE5h ;# 
   543  0FE5                     # 4660 "C:\Program Files\Microchip\xc8\v2.00\pic\include\pic12f1840.h"
   544                           BSR_SHAD equ 0FE6h ;# 
   545  0FE6                     # 4680 "C:\Program Files\Microchip\xc8\v2.00\pic\include\pic12f1840.h"
   546                           PCLATH_SHAD equ 0FE7h ;# 
   547  0FE7                     # 4700 "C:\Program Files\Microchip\xc8\v2.00\pic\include\pic12f1840.h"
   548                           FSR0L_SHAD equ 0FE8h ;# 
   549  0FE8                     # 4720 "C:\Program Files\Microchip\xc8\v2.00\pic\include\pic12f1840.h"
   550                           FSR0H_SHAD equ 0FE9h ;# 
   551  0FE9                     # 4740 "C:\Program Files\Microchip\xc8\v2.00\pic\include\pic12f1840.h"
   552                           FSR1L_SHAD equ 0FEAh ;# 
   553  0FEA                     # 4760 "C:\Program Files\Microchip\xc8\v2.00\pic\include\pic12f1840.h"
   554                           FSR1H_SHAD equ 0FEBh ;# 
   555  0FEB                     # 4780 "C:\Program Files\Microchip\xc8\v2.00\pic\include\pic12f1840.h"
   556                           STKPTR equ 0FEDh ;# 
   557  0FED                     # 4800 "C:\Program Files\Microchip\xc8\v2.00\pic\include\pic12f1840.h"
   558                           TOSL equ 0FEEh ;# 
   559  0FEE                     # 4820 "C:\Program Files\Microchip\xc8\v2.00\pic\include\pic12f1840.h"
   560                           TOSH equ 0FEFh ;# 
   561  0FEF                     # 54 "C:\Program Files\Microchip\xc8\v2.00\pic\include\pic12f1840.h"
   562                           INDF0 equ 00h ;# 
   563  0000                     # 74 "C:\Program Files\Microchip\xc8\v2.00\pic\include\pic12f1840.h"
   564                           INDF1 equ 01h ;# 
   565  0001                     # 94 "C:\Program Files\Microchip\xc8\v2.00\pic\include\pic12f1840.h"
   566                           PCL equ 02h ;# 
   567  0002                     # 114 "C:\Program Files\Microchip\xc8\v2.00\pic\include\pic12f1840.h"
   568                           STATUS equ 03h ;# 
   569  0003                     # 177 "C:\Program Files\Microchip\xc8\v2.00\pic\include\pic12f1840.h"
   570                           FSR0L equ 04h ;# 
   571  0004                     # 197 "C:\Program Files\Microchip\xc8\v2.00\pic\include\pic12f1840.h"
   572                           FSR0H equ 05h ;# 
   573  0005                     # 221 "C:\Program Files\Microchip\xc8\v2.00\pic\include\pic12f1840.h"
   574                           FSR1L equ 06h ;# 
   575  0006                     # 241 "C:\Program Files\Microchip\xc8\v2.00\pic\include\pic12f1840.h"
   576                           FSR1H equ 07h ;# 
   577  0007                     # 261 "C:\Program Files\Microchip\xc8\v2.00\pic\include\pic12f1840.h"
   578                           BSR equ 08h ;# 
   579  0008                     # 313 "C:\Program Files\Microchip\xc8\v2.00\pic\include\pic12f1840.h"
   580                           WREG equ 09h ;# 
   581  0009                     # 333 "C:\Program Files\Microchip\xc8\v2.00\pic\include\pic12f1840.h"
   582                           PCLATH equ 0Ah ;# 
   583  000A                     # 353 "C:\Program Files\Microchip\xc8\v2.00\pic\include\pic12f1840.h"
   584                           INTCON equ 0Bh ;# 
   585  000B                     # 431 "C:\Program Files\Microchip\xc8\v2.00\pic\include\pic12f1840.h"
   586                           PORTA equ 0Ch ;# 
   587  000C                     # 481 "C:\Program Files\Microchip\xc8\v2.00\pic\include\pic12f1840.h"
   588                           PIR1 equ 011h ;# 
   589  0011                     # 543 "C:\Program Files\Microchip\xc8\v2.00\pic\include\pic12f1840.h"
   590                           PIR2 equ 012h ;# 
   591  0012                     # 583 "C:\Program Files\Microchip\xc8\v2.00\pic\include\pic12f1840.h"
   592                           TMR0 equ 015h ;# 
   593  0015                     # 603 "C:\Program Files\Microchip\xc8\v2.00\pic\include\pic12f1840.h"
   594                           TMR1 equ 016h ;# 
   595  0016                     # 610 "C:\Program Files\Microchip\xc8\v2.00\pic\include\pic12f1840.h"
   596                           TMR1L equ 016h ;# 
   597  0016                     # 630 "C:\Program Files\Microchip\xc8\v2.00\pic\include\pic12f1840.h"
   598                           TMR1H equ 017h ;# 
   599  0017                     # 650 "C:\Program Files\Microchip\xc8\v2.00\pic\include\pic12f1840.h"
   600                           T1CON equ 018h ;# 
   601  0018                     # 722 "C:\Program Files\Microchip\xc8\v2.00\pic\include\pic12f1840.h"
   602                           T1GCON equ 019h ;# 
   603  0019                     # 799 "C:\Program Files\Microchip\xc8\v2.00\pic\include\pic12f1840.h"
   604                           TMR2 equ 01Ah ;# 
   605  001A                     # 819 "C:\Program Files\Microchip\xc8\v2.00\pic\include\pic12f1840.h"
   606                           PR2 equ 01Bh ;# 
   607  001B                     # 839 "C:\Program Files\Microchip\xc8\v2.00\pic\include\pic12f1840.h"
   608                           T2CON equ 01Ch ;# 
   609  001C                     # 910 "C:\Program Files\Microchip\xc8\v2.00\pic\include\pic12f1840.h"
   610                           CPSCON0 equ 01Eh ;# 
   611  001E                     # 970 "C:\Program Files\Microchip\xc8\v2.00\pic\include\pic12f1840.h"
   612                           CPSCON1 equ 01Fh ;# 
   613  001F                     # 1004 "C:\Program Files\Microchip\xc8\v2.00\pic\include\pic12f1840.h"
   614                           TRISA equ 08Ch ;# 
   615  008C                     # 1054 "C:\Program Files\Microchip\xc8\v2.00\pic\include\pic12f1840.h"
   616                           PIE1 equ 091h ;# 
   617  0091                     # 1116 "C:\Program Files\Microchip\xc8\v2.00\pic\include\pic12f1840.h"
   618                           PIE2 equ 092h ;# 
   619  0092                     # 1156 "C:\Program Files\Microchip\xc8\v2.00\pic\include\pic12f1840.h"
   620                           OPTION_REG equ 095h ;# 
   621  0095                     # 1239 "C:\Program Files\Microchip\xc8\v2.00\pic\include\pic12f1840.h"
   622                           PCON equ 096h ;# 
   623  0096                     # 1290 "C:\Program Files\Microchip\xc8\v2.00\pic\include\pic12f1840.h"
   624                           WDTCON equ 097h ;# 
   625  0097                     # 1349 "C:\Program Files\Microchip\xc8\v2.00\pic\include\pic12f1840.h"
   626                           OSCTUNE equ 098h ;# 
   627  0098                     # 1407 "C:\Program Files\Microchip\xc8\v2.00\pic\include\pic12f1840.h"
   628                           OSCCON equ 099h ;# 
   629  0099                     # 1479 "C:\Program Files\Microchip\xc8\v2.00\pic\include\pic12f1840.h"
   630                           OSCSTAT equ 09Ah ;# 
   631  009A                     # 1541 "C:\Program Files\Microchip\xc8\v2.00\pic\include\pic12f1840.h"
   632                           ADRES equ 09Bh ;# 
   633  009B                     # 1548 "C:\Program Files\Microchip\xc8\v2.00\pic\include\pic12f1840.h"
   634                           ADRESL equ 09Bh ;# 
   635  009B                     # 1568 "C:\Program Files\Microchip\xc8\v2.00\pic\include\pic12f1840.h"
   636                           ADRESH equ 09Ch ;# 
   637  009C                     # 1588 "C:\Program Files\Microchip\xc8\v2.00\pic\include\pic12f1840.h"
   638                           ADCON0 equ 09Dh ;# 
   639  009D                     # 1668 "C:\Program Files\Microchip\xc8\v2.00\pic\include\pic12f1840.h"
   640                           ADCON1 equ 09Eh ;# 
   641  009E                     # 1734 "C:\Program Files\Microchip\xc8\v2.00\pic\include\pic12f1840.h"
   642                           LATA equ 010Ch ;# 
   643  010C                     # 1779 "C:\Program Files\Microchip\xc8\v2.00\pic\include\pic12f1840.h"
   644                           CM1CON0 equ 0111h ;# 
   645  0111                     # 1836 "C:\Program Files\Microchip\xc8\v2.00\pic\include\pic12f1840.h"
   646                           CM1CON1 equ 0112h ;# 
   647  0112                     # 1896 "C:\Program Files\Microchip\xc8\v2.00\pic\include\pic12f1840.h"
   648                           CMOUT equ 0115h ;# 
   649  0115                     # 1916 "C:\Program Files\Microchip\xc8\v2.00\pic\include\pic12f1840.h"
   650                           BORCON equ 0116h ;# 
   651  0116                     # 1949 "C:\Program Files\Microchip\xc8\v2.00\pic\include\pic12f1840.h"
   652                           FVRCON equ 0117h ;# 
   653  0117                     # 2025 "C:\Program Files\Microchip\xc8\v2.00\pic\include\pic12f1840.h"
   654                           DACCON0 equ 0118h ;# 
   655  0118                     # 2080 "C:\Program Files\Microchip\xc8\v2.00\pic\include\pic12f1840.h"
   656                           DACCON1 equ 0119h ;# 
   657  0119                     # 2132 "C:\Program Files\Microchip\xc8\v2.00\pic\include\pic12f1840.h"
   658                           SRCON0 equ 011Ah ;# 
   659  011A                     # 2203 "C:\Program Files\Microchip\xc8\v2.00\pic\include\pic12f1840.h"
   660                           SRCON1 equ 011Bh ;# 
   661  011B                     # 2255 "C:\Program Files\Microchip\xc8\v2.00\pic\include\pic12f1840.h"
   662                           APFCON equ 011Dh ;# 
   663  011D                     # 2260 "C:\Program Files\Microchip\xc8\v2.00\pic\include\pic12f1840.h"
   664                           APFCON0 equ 011Dh ;# 
   665  011D                     # 2397 "C:\Program Files\Microchip\xc8\v2.00\pic\include\pic12f1840.h"
   666                           ANSELA equ 018Ch ;# 
   667  018C                     # 2444 "C:\Program Files\Microchip\xc8\v2.00\pic\include\pic12f1840.h"
   668                           EEADR equ 0191h ;# 
   669  0191                     # 2451 "C:\Program Files\Microchip\xc8\v2.00\pic\include\pic12f1840.h"
   670                           EEADRL equ 0191h ;# 
   671  0191                     # 2471 "C:\Program Files\Microchip\xc8\v2.00\pic\include\pic12f1840.h"
   672                           EEADRH equ 0192h ;# 
   673  0192                     # 2491 "C:\Program Files\Microchip\xc8\v2.00\pic\include\pic12f1840.h"
   674                           EEDAT equ 0193h ;# 
   675  0193                     # 2498 "C:\Program Files\Microchip\xc8\v2.00\pic\include\pic12f1840.h"
   676                           EEDATL equ 0193h ;# 
   677  0193                     # 2503 "C:\Program Files\Microchip\xc8\v2.00\pic\include\pic12f1840.h"
   678                           EEDATA equ 0193h ;# 
   679  0193                     # 2536 "C:\Program Files\Microchip\xc8\v2.00\pic\include\pic12f1840.h"
   680                           EEDATH equ 0194h ;# 
   681  0194                     # 2556 "C:\Program Files\Microchip\xc8\v2.00\pic\include\pic12f1840.h"
   682                           EECON1 equ 0195h ;# 
   683  0195                     # 2618 "C:\Program Files\Microchip\xc8\v2.00\pic\include\pic12f1840.h"
   684                           EECON2 equ 0196h ;# 
   685  0196                     # 2638 "C:\Program Files\Microchip\xc8\v2.00\pic\include\pic12f1840.h"
   686                           VREGCON equ 0197h ;# 
   687  0197                     # 2672 "C:\Program Files\Microchip\xc8\v2.00\pic\include\pic12f1840.h"
   688                           RCREG equ 0199h ;# 
   689  0199                     # 2692 "C:\Program Files\Microchip\xc8\v2.00\pic\include\pic12f1840.h"
   690                           TXREG equ 019Ah ;# 
   691  019A                     # 2712 "C:\Program Files\Microchip\xc8\v2.00\pic\include\pic12f1840.h"
   692                           SP1BRG equ 019Bh ;# 
   693  019B                     # 2719 "C:\Program Files\Microchip\xc8\v2.00\pic\include\pic12f1840.h"
   694                           SP1BRGL equ 019Bh ;# 
   695  019B                     # 2724 "C:\Program Files\Microchip\xc8\v2.00\pic\include\pic12f1840.h"
   696                           SPBRG equ 019Bh ;# 
   697  019B                     # 2728 "C:\Program Files\Microchip\xc8\v2.00\pic\include\pic12f1840.h"
   698                           SPBRGL equ 019Bh ;# 
   699  019B                     # 2773 "C:\Program Files\Microchip\xc8\v2.00\pic\include\pic12f1840.h"
   700                           SP1BRGH equ 019Ch ;# 
   701  019C                     # 2778 "C:\Program Files\Microchip\xc8\v2.00\pic\include\pic12f1840.h"
   702                           SPBRGH equ 019Ch ;# 
   703  019C                     # 2811 "C:\Program Files\Microchip\xc8\v2.00\pic\include\pic12f1840.h"
   704                           RCSTA equ 019Dh ;# 
   705  019D                     # 2873 "C:\Program Files\Microchip\xc8\v2.00\pic\include\pic12f1840.h"
   706                           TXSTA equ 019Eh ;# 
   707  019E                     # 2935 "C:\Program Files\Microchip\xc8\v2.00\pic\include\pic12f1840.h"
   708                           BAUDCON equ 019Fh ;# 
   709  019F                     # 2987 "C:\Program Files\Microchip\xc8\v2.00\pic\include\pic12f1840.h"
   710                           WPUA equ 020Ch ;# 
   711  020C                     # 3045 "C:\Program Files\Microchip\xc8\v2.00\pic\include\pic12f1840.h"
   712                           SSP1BUF equ 0211h ;# 
   713  0211                     # 3050 "C:\Program Files\Microchip\xc8\v2.00\pic\include\pic12f1840.h"
   714                           SSPBUF equ 0211h ;# 
   715  0211                     # 3083 "C:\Program Files\Microchip\xc8\v2.00\pic\include\pic12f1840.h"
   716                           SSP1ADD equ 0212h ;# 
   717  0212                     # 3088 "C:\Program Files\Microchip\xc8\v2.00\pic\include\pic12f1840.h"
   718                           SSPADD equ 0212h ;# 
   719  0212                     # 3121 "C:\Program Files\Microchip\xc8\v2.00\pic\include\pic12f1840.h"
   720                           SSP1MSK equ 0213h ;# 
   721  0213                     # 3126 "C:\Program Files\Microchip\xc8\v2.00\pic\include\pic12f1840.h"
   722                           SSPMSK equ 0213h ;# 
   723  0213                     # 3159 "C:\Program Files\Microchip\xc8\v2.00\pic\include\pic12f1840.h"
   724                           SSP1STAT equ 0214h ;# 
   725  0214                     # 3164 "C:\Program Files\Microchip\xc8\v2.00\pic\include\pic12f1840.h"
   726                           SSPSTAT equ 0214h ;# 
   727  0214                     # 3281 "C:\Program Files\Microchip\xc8\v2.00\pic\include\pic12f1840.h"
   728                           SSP1CON1 equ 0215h ;# 
   729  0215                     # 3286 "C:\Program Files\Microchip\xc8\v2.00\pic\include\pic12f1840.h"
   730                           SSPCON1 equ 0215h ;# 
   731  0215                     # 3290 "C:\Program Files\Microchip\xc8\v2.00\pic\include\pic12f1840.h"
   732                           SSPCON equ 0215h ;# 
   733  0215                     # 3485 "C:\Program Files\Microchip\xc8\v2.00\pic\include\pic12f1840.h"
   734                           SSP1CON2 equ 0216h ;# 
   735  0216                     # 3490 "C:\Program Files\Microchip\xc8\v2.00\pic\include\pic12f1840.h"
   736                           SSPCON2 equ 0216h ;# 
   737  0216                     # 3607 "C:\Program Files\Microchip\xc8\v2.00\pic\include\pic12f1840.h"
   738                           SSP1CON3 equ 0217h ;# 
   739  0217                     # 3612 "C:\Program Files\Microchip\xc8\v2.00\pic\include\pic12f1840.h"
   740                           SSPCON3 equ 0217h ;# 
   741  0217                     # 3729 "C:\Program Files\Microchip\xc8\v2.00\pic\include\pic12f1840.h"
   742                           CCPR1 equ 0291h ;# 
   743  0291                     # 3736 "C:\Program Files\Microchip\xc8\v2.00\pic\include\pic12f1840.h"
   744                           CCPR1L equ 0291h ;# 
   745  0291                     # 3756 "C:\Program Files\Microchip\xc8\v2.00\pic\include\pic12f1840.h"
   746                           CCPR1H equ 0292h ;# 
   747  0292                     # 3776 "C:\Program Files\Microchip\xc8\v2.00\pic\include\pic12f1840.h"
   748                           CCP1CON equ 0293h ;# 
   749  0293                     # 3858 "C:\Program Files\Microchip\xc8\v2.00\pic\include\pic12f1840.h"
   750                           PWM1CON equ 0294h ;# 
   751  0294                     # 3928 "C:\Program Files\Microchip\xc8\v2.00\pic\include\pic12f1840.h"
   752                           CCP1AS equ 0295h ;# 
   753  0295                     # 3933 "C:\Program Files\Microchip\xc8\v2.00\pic\include\pic12f1840.h"
   754                           ECCP1AS equ 0295h ;# 
   755  0295                     # 4090 "C:\Program Files\Microchip\xc8\v2.00\pic\include\pic12f1840.h"
   756                           PSTR1CON equ 0296h ;# 
   757  0296                     # 4124 "C:\Program Files\Microchip\xc8\v2.00\pic\include\pic12f1840.h"
   758                           IOCAP equ 0391h ;# 
   759  0391                     # 4182 "C:\Program Files\Microchip\xc8\v2.00\pic\include\pic12f1840.h"
   760                           IOCAN equ 0392h ;# 
   761  0392                     # 4240 "C:\Program Files\Microchip\xc8\v2.00\pic\include\pic12f1840.h"
   762                           IOCAF equ 0393h ;# 
   763  0393                     # 4298 "C:\Program Files\Microchip\xc8\v2.00\pic\include\pic12f1840.h"
   764                           CLKRCON equ 039Ah ;# 
   765  039A                     # 4374 "C:\Program Files\Microchip\xc8\v2.00\pic\include\pic12f1840.h"
   766                           MDCON equ 039Ch ;# 
   767  039C                     # 4425 "C:\Program Files\Microchip\xc8\v2.00\pic\include\pic12f1840.h"
   768                           MDSRC equ 039Dh ;# 
   769  039D                     # 4478 "C:\Program Files\Microchip\xc8\v2.00\pic\include\pic12f1840.h"
   770                           MDCARL equ 039Eh ;# 
   771  039E                     # 4543 "C:\Program Files\Microchip\xc8\v2.00\pic\include\pic12f1840.h"
   772                           MDCARH equ 039Fh ;# 
   773  039F                     # 4608 "C:\Program Files\Microchip\xc8\v2.00\pic\include\pic12f1840.h"
   774                           STATUS_SHAD equ 0FE4h ;# 
   775  0FE4                     # 4640 "C:\Program Files\Microchip\xc8\v2.00\pic\include\pic12f1840.h"
   776                           WREG_SHAD equ 0FE5h ;# 
   777  0FE5                     # 4660 "C:\Program Files\Microchip\xc8\v2.00\pic\include\pic12f1840.h"
   778                           BSR_SHAD equ 0FE6h ;# 
   779  0FE6                     # 4680 "C:\Program Files\Microchip\xc8\v2.00\pic\include\pic12f1840.h"
   780                           PCLATH_SHAD equ 0FE7h ;# 
   781  0FE7                     # 4700 "C:\Program Files\Microchip\xc8\v2.00\pic\include\pic12f1840.h"
   782                           FSR0L_SHAD equ 0FE8h ;# 
   783  0FE8                     # 4720 "C:\Program Files\Microchip\xc8\v2.00\pic\include\pic12f1840.h"
   784                           FSR0H_SHAD equ 0FE9h ;# 
   785  0FE9                     # 4740 "C:\Program Files\Microchip\xc8\v2.00\pic\include\pic12f1840.h"
   786                           FSR1L_SHAD equ 0FEAh ;# 
   787  0FEA                     # 4760 "C:\Program Files\Microchip\xc8\v2.00\pic\include\pic12f1840.h"
   788                           FSR1H_SHAD equ 0FEBh ;# 
   789  0FEB                     # 4780 "C:\Program Files\Microchip\xc8\v2.00\pic\include\pic12f1840.h"
   790                           STKPTR equ 0FEDh ;# 
   791  0FED                     # 4800 "C:\Program Files\Microchip\xc8\v2.00\pic\include\pic12f1840.h"
   792                           TOSL equ 0FEEh ;# 
   793  0FEE                     # 4820 "C:\Program Files\Microchip\xc8\v2.00\pic\include\pic12f1840.h"
   794                           TOSH equ 0FEFh ;# 
   795  0FEF                     # 54 "C:\Program Files\Microchip\xc8\v2.00\pic\include\pic12f1840.h"
   796                           INDF0 equ 00h ;# 
   797  0000                     # 74 "C:\Program Files\Microchip\xc8\v2.00\pic\include\pic12f1840.h"
   798                           INDF1 equ 01h ;# 
   799  0001                     # 94 "C:\Program Files\Microchip\xc8\v2.00\pic\include\pic12f1840.h"
   800                           PCL equ 02h ;# 
   801  0002                     # 114 "C:\Program Files\Microchip\xc8\v2.00\pic\include\pic12f1840.h"
   802                           STATUS equ 03h ;# 
   803  0003                     # 177 "C:\Program Files\Microchip\xc8\v2.00\pic\include\pic12f1840.h"
   804                           FSR0L equ 04h ;# 
   805  0004                     # 197 "C:\Program Files\Microchip\xc8\v2.00\pic\include\pic12f1840.h"
   806                           FSR0H equ 05h ;# 
   807  0005                     # 221 "C:\Program Files\Microchip\xc8\v2.00\pic\include\pic12f1840.h"
   808                           FSR1L equ 06h ;# 
   809  0006                     # 241 "C:\Program Files\Microchip\xc8\v2.00\pic\include\pic12f1840.h"
   810                           FSR1H equ 07h ;# 
   811  0007                     # 261 "C:\Program Files\Microchip\xc8\v2.00\pic\include\pic12f1840.h"
   812                           BSR equ 08h ;# 
   813  0008                     # 313 "C:\Program Files\Microchip\xc8\v2.00\pic\include\pic12f1840.h"
   814                           WREG equ 09h ;# 
   815  0009                     # 333 "C:\Program Files\Microchip\xc8\v2.00\pic\include\pic12f1840.h"
   816                           PCLATH equ 0Ah ;# 
   817  000A                     # 353 "C:\Program Files\Microchip\xc8\v2.00\pic\include\pic12f1840.h"
   818                           INTCON equ 0Bh ;# 
   819  000B                     # 431 "C:\Program Files\Microchip\xc8\v2.00\pic\include\pic12f1840.h"
   820                           PORTA equ 0Ch ;# 
   821  000C                     # 481 "C:\Program Files\Microchip\xc8\v2.00\pic\include\pic12f1840.h"
   822                           PIR1 equ 011h ;# 
   823  0011                     # 543 "C:\Program Files\Microchip\xc8\v2.00\pic\include\pic12f1840.h"
   824                           PIR2 equ 012h ;# 
   825  0012                     # 583 "C:\Program Files\Microchip\xc8\v2.00\pic\include\pic12f1840.h"
   826                           TMR0 equ 015h ;# 
   827  0015                     # 603 "C:\Program Files\Microchip\xc8\v2.00\pic\include\pic12f1840.h"
   828                           TMR1 equ 016h ;# 
   829  0016                     # 610 "C:\Program Files\Microchip\xc8\v2.00\pic\include\pic12f1840.h"
   830                           TMR1L equ 016h ;# 
   831  0016                     # 630 "C:\Program Files\Microchip\xc8\v2.00\pic\include\pic12f1840.h"
   832                           TMR1H equ 017h ;# 
   833  0017                     # 650 "C:\Program Files\Microchip\xc8\v2.00\pic\include\pic12f1840.h"
   834                           T1CON equ 018h ;# 
   835  0018                     # 722 "C:\Program Files\Microchip\xc8\v2.00\pic\include\pic12f1840.h"
   836                           T1GCON equ 019h ;# 
   837  0019                     # 799 "C:\Program Files\Microchip\xc8\v2.00\pic\include\pic12f1840.h"
   838                           TMR2 equ 01Ah ;# 
   839  001A                     # 819 "C:\Program Files\Microchip\xc8\v2.00\pic\include\pic12f1840.h"
   840                           PR2 equ 01Bh ;# 
   841  001B                     # 839 "C:\Program Files\Microchip\xc8\v2.00\pic\include\pic12f1840.h"
   842                           T2CON equ 01Ch ;# 
   843  001C                     # 910 "C:\Program Files\Microchip\xc8\v2.00\pic\include\pic12f1840.h"
   844                           CPSCON0 equ 01Eh ;# 
   845  001E                     # 970 "C:\Program Files\Microchip\xc8\v2.00\pic\include\pic12f1840.h"
   846                           CPSCON1 equ 01Fh ;# 
   847  001F                     # 1004 "C:\Program Files\Microchip\xc8\v2.00\pic\include\pic12f1840.h"
   848                           TRISA equ 08Ch ;# 
   849  008C                     # 1054 "C:\Program Files\Microchip\xc8\v2.00\pic\include\pic12f1840.h"
   850                           PIE1 equ 091h ;# 
   851  0091                     # 1116 "C:\Program Files\Microchip\xc8\v2.00\pic\include\pic12f1840.h"
   852                           PIE2 equ 092h ;# 
   853  0092                     # 1156 "C:\Program Files\Microchip\xc8\v2.00\pic\include\pic12f1840.h"
   854                           OPTION_REG equ 095h ;# 
   855  0095                     # 1239 "C:\Program Files\Microchip\xc8\v2.00\pic\include\pic12f1840.h"
   856                           PCON equ 096h ;# 
   857  0096                     # 1290 "C:\Program Files\Microchip\xc8\v2.00\pic\include\pic12f1840.h"
   858                           WDTCON equ 097h ;# 
   859  0097                     # 1349 "C:\Program Files\Microchip\xc8\v2.00\pic\include\pic12f1840.h"
   860                           OSCTUNE equ 098h ;# 
   861  0098                     # 1407 "C:\Program Files\Microchip\xc8\v2.00\pic\include\pic12f1840.h"
   862                           OSCCON equ 099h ;# 
   863  0099                     # 1479 "C:\Program Files\Microchip\xc8\v2.00\pic\include\pic12f1840.h"
   864                           OSCSTAT equ 09Ah ;# 
   865  009A                     # 1541 "C:\Program Files\Microchip\xc8\v2.00\pic\include\pic12f1840.h"
   866                           ADRES equ 09Bh ;# 
   867  009B                     # 1548 "C:\Program Files\Microchip\xc8\v2.00\pic\include\pic12f1840.h"
   868                           ADRESL equ 09Bh ;# 
   869  009B                     # 1568 "C:\Program Files\Microchip\xc8\v2.00\pic\include\pic12f1840.h"
   870                           ADRESH equ 09Ch ;# 
   871  009C                     # 1588 "C:\Program Files\Microchip\xc8\v2.00\pic\include\pic12f1840.h"
   872                           ADCON0 equ 09Dh ;# 
   873  009D                     # 1668 "C:\Program Files\Microchip\xc8\v2.00\pic\include\pic12f1840.h"
   874                           ADCON1 equ 09Eh ;# 
   875  009E                     # 1734 "C:\Program Files\Microchip\xc8\v2.00\pic\include\pic12f1840.h"
   876                           LATA equ 010Ch ;# 
   877  010C                     # 1779 "C:\Program Files\Microchip\xc8\v2.00\pic\include\pic12f1840.h"
   878                           CM1CON0 equ 0111h ;# 
   879  0111                     # 1836 "C:\Program Files\Microchip\xc8\v2.00\pic\include\pic12f1840.h"
   880                           CM1CON1 equ 0112h ;# 
   881  0112                     # 1896 "C:\Program Files\Microchip\xc8\v2.00\pic\include\pic12f1840.h"
   882                           CMOUT equ 0115h ;# 
   883  0115                     # 1916 "C:\Program Files\Microchip\xc8\v2.00\pic\include\pic12f1840.h"
   884                           BORCON equ 0116h ;# 
   885  0116                     # 1949 "C:\Program Files\Microchip\xc8\v2.00\pic\include\pic12f1840.h"
   886                           FVRCON equ 0117h ;# 
   887  0117                     # 2025 "C:\Program Files\Microchip\xc8\v2.00\pic\include\pic12f1840.h"
   888                           DACCON0 equ 0118h ;# 
   889  0118                     # 2080 "C:\Program Files\Microchip\xc8\v2.00\pic\include\pic12f1840.h"
   890                           DACCON1 equ 0119h ;# 
   891  0119                     # 2132 "C:\Program Files\Microchip\xc8\v2.00\pic\include\pic12f1840.h"
   892                           SRCON0 equ 011Ah ;# 
   893  011A                     # 2203 "C:\Program Files\Microchip\xc8\v2.00\pic\include\pic12f1840.h"
   894                           SRCON1 equ 011Bh ;# 
   895  011B                     # 2255 "C:\Program Files\Microchip\xc8\v2.00\pic\include\pic12f1840.h"
   896                           APFCON equ 011Dh ;# 
   897  011D                     # 2260 "C:\Program Files\Microchip\xc8\v2.00\pic\include\pic12f1840.h"
   898                           APFCON0 equ 011Dh ;# 
   899  011D                     # 2397 "C:\Program Files\Microchip\xc8\v2.00\pic\include\pic12f1840.h"
   900                           ANSELA equ 018Ch ;# 
   901  018C                     # 2444 "C:\Program Files\Microchip\xc8\v2.00\pic\include\pic12f1840.h"
   902                           EEADR equ 0191h ;# 
   903  0191                     # 2451 "C:\Program Files\Microchip\xc8\v2.00\pic\include\pic12f1840.h"
   904                           EEADRL equ 0191h ;# 
   905  0191                     # 2471 "C:\Program Files\Microchip\xc8\v2.00\pic\include\pic12f1840.h"
   906                           EEADRH equ 0192h ;# 
   907  0192                     # 2491 "C:\Program Files\Microchip\xc8\v2.00\pic\include\pic12f1840.h"
   908                           EEDAT equ 0193h ;# 
   909  0193                     # 2498 "C:\Program Files\Microchip\xc8\v2.00\pic\include\pic12f1840.h"
   910                           EEDATL equ 0193h ;# 
   911  0193                     # 2503 "C:\Program Files\Microchip\xc8\v2.00\pic\include\pic12f1840.h"
   912                           EEDATA equ 0193h ;# 
   913  0193                     # 2536 "C:\Program Files\Microchip\xc8\v2.00\pic\include\pic12f1840.h"
   914                           EEDATH equ 0194h ;# 
   915  0194                     # 2556 "C:\Program Files\Microchip\xc8\v2.00\pic\include\pic12f1840.h"
   916                           EECON1 equ 0195h ;# 
   917  0195                     # 2618 "C:\Program Files\Microchip\xc8\v2.00\pic\include\pic12f1840.h"
   918                           EECON2 equ 0196h ;# 
   919  0196                     # 2638 "C:\Program Files\Microchip\xc8\v2.00\pic\include\pic12f1840.h"
   920                           VREGCON equ 0197h ;# 
   921  0197                     # 2672 "C:\Program Files\Microchip\xc8\v2.00\pic\include\pic12f1840.h"
   922                           RCREG equ 0199h ;# 
   923  0199                     # 2692 "C:\Program Files\Microchip\xc8\v2.00\pic\include\pic12f1840.h"
   924                           TXREG equ 019Ah ;# 
   925  019A                     # 2712 "C:\Program Files\Microchip\xc8\v2.00\pic\include\pic12f1840.h"
   926                           SP1BRG equ 019Bh ;# 
   927  019B                     # 2719 "C:\Program Files\Microchip\xc8\v2.00\pic\include\pic12f1840.h"
   928                           SP1BRGL equ 019Bh ;# 
   929  019B                     # 2724 "C:\Program Files\Microchip\xc8\v2.00\pic\include\pic12f1840.h"
   930                           SPBRG equ 019Bh ;# 
   931  019B                     # 2728 "C:\Program Files\Microchip\xc8\v2.00\pic\include\pic12f1840.h"
   932                           SPBRGL equ 019Bh ;# 
   933  019B                     # 2773 "C:\Program Files\Microchip\xc8\v2.00\pic\include\pic12f1840.h"
   934                           SP1BRGH equ 019Ch ;# 
   935  019C                     # 2778 "C:\Program Files\Microchip\xc8\v2.00\pic\include\pic12f1840.h"
   936                           SPBRGH equ 019Ch ;# 
   937  019C                     # 2811 "C:\Program Files\Microchip\xc8\v2.00\pic\include\pic12f1840.h"
   938                           RCSTA equ 019Dh ;# 
   939  019D                     # 2873 "C:\Program Files\Microchip\xc8\v2.00\pic\include\pic12f1840.h"
   940                           TXSTA equ 019Eh ;# 
   941  019E                     # 2935 "C:\Program Files\Microchip\xc8\v2.00\pic\include\pic12f1840.h"
   942                           BAUDCON equ 019Fh ;# 
   943  019F                     # 2987 "C:\Program Files\Microchip\xc8\v2.00\pic\include\pic12f1840.h"
   944                           WPUA equ 020Ch ;# 
   945  020C                     # 3045 "C:\Program Files\Microchip\xc8\v2.00\pic\include\pic12f1840.h"
   946                           SSP1BUF equ 0211h ;# 
   947  0211                     # 3050 "C:\Program Files\Microchip\xc8\v2.00\pic\include\pic12f1840.h"
   948                           SSPBUF equ 0211h ;# 
   949  0211                     # 3083 "C:\Program Files\Microchip\xc8\v2.00\pic\include\pic12f1840.h"
   950                           SSP1ADD equ 0212h ;# 
   951  0212                     # 3088 "C:\Program Files\Microchip\xc8\v2.00\pic\include\pic12f1840.h"
   952                           SSPADD equ 0212h ;# 
   953  0212                     # 3121 "C:\Program Files\Microchip\xc8\v2.00\pic\include\pic12f1840.h"
   954                           SSP1MSK equ 0213h ;# 
   955  0213                     # 3126 "C:\Program Files\Microchip\xc8\v2.00\pic\include\pic12f1840.h"
   956                           SSPMSK equ 0213h ;# 
   957  0213                     # 3159 "C:\Program Files\Microchip\xc8\v2.00\pic\include\pic12f1840.h"
   958                           SSP1STAT equ 0214h ;# 
   959  0214                     # 3164 "C:\Program Files\Microchip\xc8\v2.00\pic\include\pic12f1840.h"
   960                           SSPSTAT equ 0214h ;# 
   961  0214                     # 3281 "C:\Program Files\Microchip\xc8\v2.00\pic\include\pic12f1840.h"
   962                           SSP1CON1 equ 0215h ;# 
   963  0215                     # 3286 "C:\Program Files\Microchip\xc8\v2.00\pic\include\pic12f1840.h"
   964                           SSPCON1 equ 0215h ;# 
   965  0215                     # 3290 "C:\Program Files\Microchip\xc8\v2.00\pic\include\pic12f1840.h"
   966                           SSPCON equ 0215h ;# 
   967  0215                     # 3485 "C:\Program Files\Microchip\xc8\v2.00\pic\include\pic12f1840.h"
   968                           SSP1CON2 equ 0216h ;# 
   969  0216                     # 3490 "C:\Program Files\Microchip\xc8\v2.00\pic\include\pic12f1840.h"
   970                           SSPCON2 equ 0216h ;# 
   971  0216                     # 3607 "C:\Program Files\Microchip\xc8\v2.00\pic\include\pic12f1840.h"
   972                           SSP1CON3 equ 0217h ;# 
   973  0217                     # 3612 "C:\Program Files\Microchip\xc8\v2.00\pic\include\pic12f1840.h"
   974                           SSPCON3 equ 0217h ;# 
   975  0217                     # 3729 "C:\Program Files\Microchip\xc8\v2.00\pic\include\pic12f1840.h"
   976                           CCPR1 equ 0291h ;# 
   977  0291                     # 3736 "C:\Program Files\Microchip\xc8\v2.00\pic\include\pic12f1840.h"
   978                           CCPR1L equ 0291h ;# 
   979  0291                     # 3756 "C:\Program Files\Microchip\xc8\v2.00\pic\include\pic12f1840.h"
   980                           CCPR1H equ 0292h ;# 
   981  0292                     # 3776 "C:\Program Files\Microchip\xc8\v2.00\pic\include\pic12f1840.h"
   982                           CCP1CON equ 0293h ;# 
   983  0293                     # 3858 "C:\Program Files\Microchip\xc8\v2.00\pic\include\pic12f1840.h"
   984                           PWM1CON equ 0294h ;# 
   985  0294                     # 3928 "C:\Program Files\Microchip\xc8\v2.00\pic\include\pic12f1840.h"
   986                           CCP1AS equ 0295h ;# 
   987  0295                     # 3933 "C:\Program Files\Microchip\xc8\v2.00\pic\include\pic12f1840.h"
   988                           ECCP1AS equ 0295h ;# 
   989  0295                     # 4090 "C:\Program Files\Microchip\xc8\v2.00\pic\include\pic12f1840.h"
   990                           PSTR1CON equ 0296h ;# 
   991  0296                     # 4124 "C:\Program Files\Microchip\xc8\v2.00\pic\include\pic12f1840.h"
   992                           IOCAP equ 0391h ;# 
   993  0391                     # 4182 "C:\Program Files\Microchip\xc8\v2.00\pic\include\pic12f1840.h"
   994                           IOCAN equ 0392h ;# 
   995  0392                     # 4240 "C:\Program Files\Microchip\xc8\v2.00\pic\include\pic12f1840.h"
   996                           IOCAF equ 0393h ;# 
   997  0393                     # 4298 "C:\Program Files\Microchip\xc8\v2.00\pic\include\pic12f1840.h"
   998                           CLKRCON equ 039Ah ;# 
   999  039A                     # 4374 "C:\Program Files\Microchip\xc8\v2.00\pic\include\pic12f1840.h"
  1000                           MDCON equ 039Ch ;# 
  1001  039C                     # 4425 "C:\Program Files\Microchip\xc8\v2.00\pic\include\pic12f1840.h"
  1002                           MDSRC equ 039Dh ;# 
  1003  039D                     # 4478 "C:\Program Files\Microchip\xc8\v2.00\pic\include\pic12f1840.h"
  1004                           MDCARL equ 039Eh ;# 
  1005  039E                     # 4543 "C:\Program Files\Microchip\xc8\v2.00\pic\include\pic12f1840.h"
  1006                           MDCARH equ 039Fh ;# 
  1007  039F                     # 4608 "C:\Program Files\Microchip\xc8\v2.00\pic\include\pic12f1840.h"
  1008                           STATUS_SHAD equ 0FE4h ;# 
  1009  0FE4                     # 4640 "C:\Program Files\Microchip\xc8\v2.00\pic\include\pic12f1840.h"
  1010                           WREG_SHAD equ 0FE5h ;# 
  1011  0FE5                     # 4660 "C:\Program Files\Microchip\xc8\v2.00\pic\include\pic12f1840.h"
  1012                           BSR_SHAD equ 0FE6h ;# 
  1013  0FE6                     # 4680 "C:\Program Files\Microchip\xc8\v2.00\pic\include\pic12f1840.h"
  1014                           PCLATH_SHAD equ 0FE7h ;# 
  1015  0FE7                     # 4700 "C:\Program Files\Microchip\xc8\v2.00\pic\include\pic12f1840.h"
  1016                           FSR0L_SHAD equ 0FE8h ;# 
  1017  0FE8                     # 4720 "C:\Program Files\Microchip\xc8\v2.00\pic\include\pic12f1840.h"
  1018                           FSR0H_SHAD equ 0FE9h ;# 
  1019  0FE9                     # 4740 "C:\Program Files\Microchip\xc8\v2.00\pic\include\pic12f1840.h"
  1020                           FSR1L_SHAD equ 0FEAh ;# 
  1021  0FEA                     # 4760 "C:\Program Files\Microchip\xc8\v2.00\pic\include\pic12f1840.h"
  1022                           FSR1H_SHAD equ 0FEBh ;# 
  1023  0FEB                     # 4780 "C:\Program Files\Microchip\xc8\v2.00\pic\include\pic12f1840.h"
  1024                           STKPTR equ 0FEDh ;# 
  1025  0FED                     # 4800 "C:\Program Files\Microchip\xc8\v2.00\pic\include\pic12f1840.h"
  1026                           TOSL equ 0FEEh ;# 
  1027  0FEE                     # 4820 "C:\Program Files\Microchip\xc8\v2.00\pic\include\pic12f1840.h"
  1028                           TOSH equ 0FEFh ;# 
  1029  0FEF                     	FNCALL	_main,___awdiv
  1030                           	FNCALL	_main,_init
  1031                           	FNCALL	_main,_initTouch
  1032                           	FNCALL	_main,_transmitBits
  1033                           	FNCALL	_transmitBits,_bitDelay
  1034                           	FNCALL	_transmitBits,_isTouched
  1035                           	FNROOT	_main
  1036                           psect	idataCOMMON,class=CODE,space=0,delta=2,noexec
  1037                           global __pidataCOMMON
  1038                           __pidataCOMMON:
  1039  058D                     	file	"./RAINBO-TX.h"
  1040                           	line	14
  1041                           
  1042                           ;initializer for _T2
  1043                           	retlw	01h
  1044  058D  3401               psect	idataBANK0,class=CODE,space=0,delta=2,noexec
  1045                           global __pidataBANK0
  1046                           __pidataBANK0:
  1047  058E                     	line	16
  1048                           
  1049                           ;initializer for _T4
  1050                           	retlw	03h
  1051  058E  3403               	line	15
  1052                           
  1053                           ;initializer for _T3
  1054                           	retlw	02h
  1055  058F  3402               psect	stringtext1,class=STRCODE,delta=2,noexec
  1056                           global __pstringtext1
  1057                           __pstringtext1:
  1058  0800                     	file	"Touchsensor.c"
  1059                           	line	29
  1060                           _down:
  1061  0800                     	retlw	0FFh
  1062  0800  34FF               	global __end_of_down
  1063                           __end_of_down:
  1064  0801                     psect	stringtext2,class=STRCODE,delta=2,noexec
  1065                           global __pstringtext2
  1066                           __pstringtext2:
  1067  0801                     	file	"Touchsensor.c"
  1068                           	line	28
  1069                           _hold:
  1070  0801                     	retlw	low(0)
  1071  0801  3400               	global __end_of_hold
  1072                           __end_of_hold:
  1073  0802                     psect	stringtext3,class=STRCODE,delta=2,noexec
  1074                           global __pstringtext3
  1075                           __pstringtext3:
  1076  0802                     	file	"Touchsensor.c"
  1077                           	line	27
  1078                           _up:
  1079  0802                     	retlw	01h
  1080  0802  3401               	global __end_of_up
  1081                           __end_of_up:
  1082  0803                     	global	_newTarget
  1083                           	global	_Tactive
  1084                           	global	_Tdelta
  1085                           	global	_Ttrip
  1086                           	global	_Tavg
  1087                           	global	_Tcount
  1088                           	global	_Ttemp
  1089                           	global	_Target
  1090                           	global	_TMR0
  1091                           _TMR0	set	0x15
  1092  0015                     	global	_CPSCON1
  1093                           _CPSCON1	set	0x1F
  1094  001F                     	global	_CPSCON0
  1095                           _CPSCON0	set	0x1E
  1096  001E                     	global	_PORTA
  1097                           _PORTA	set	0xC
  1098  000C                     	global	_RA5
  1099                           _RA5	set	0x65
  1100  0065                     	global	_WDTCON
  1101                           _WDTCON	set	0x97
  1102  0097                     	global	_TRISA
  1103                           _TRISA	set	0x8C
  1104  008C                     	global	_OPTION_REG
  1105                           _OPTION_REG	set	0x95
  1106  0095                     	global	_OSCCON
  1107                           _OSCCON	set	0x99
  1108  0099                     	global	_SWDTEN
  1109                           _SWDTEN	set	0x4B8
  1110  04B8                     	global	_LATA
  1111                           _LATA	set	0x10C
  1112  010C                     	global	_ANSELA
  1113                           _ANSELA	set	0x18C
  1114  018C                     	global	_WPUA
  1115                           _WPUA	set	0x20C
  1116  020C                     ; #config settings
  1117                           global __CFG_FOSC$INTOSC
  1118                           __CFG_FOSC$INTOSC equ 0x0
  1119  0000                     global __CFG_WDTE$SWDTEN
  1120                           __CFG_WDTE$SWDTEN equ 0x0
  1121  0000                     global __CFG_PWRTE$ON
  1122                           __CFG_PWRTE$ON equ 0x0
  1123  0000                     global __CFG_MCLRE$OFF
  1124                           __CFG_MCLRE$OFF equ 0x0
  1125  0000                     global __CFG_CP$OFF
  1126                           __CFG_CP$OFF equ 0x0
  1127  0000                     global __CFG_CPD$OFF
  1128                           __CFG_CPD$OFF equ 0x0
  1129  0000                     global __CFG_BOREN$OFF
  1130                           __CFG_BOREN$OFF equ 0x0
  1131  0000                     global __CFG_CLKOUTEN$OFF
  1132                           __CFG_CLKOUTEN$OFF equ 0x0
  1133  0000                     global __CFG_IESO$OFF
  1134                           __CFG_IESO$OFF equ 0x0
  1135  0000                     global __CFG_FCMEN$OFF
  1136                           __CFG_FCMEN$OFF equ 0x0
  1137  0000                     global __CFG_WRT$OFF
  1138                           __CFG_WRT$OFF equ 0x0
  1139  0000                     global __CFG_PLLEN$ON
  1140                           __CFG_PLLEN$ON equ 0x0
  1141  0000                     global __CFG_STVREN$ON
  1142                           __CFG_STVREN$ON equ 0x0
  1143  0000                     global __CFG_BORV$LO
  1144                           __CFG_BORV$LO equ 0x0
  1145  0000                     global __CFG_LVP$OFF
  1146                           __CFG_LVP$OFF equ 0x0
  1147  0000                     	file	"C:\Users\MUSHA7~1\AppData\Local\Temp\svg."
  1148                           	line	#
  1149                           psect cinit,class=CODE,delta=2
  1150                           global start_initialization
  1151                           start_initialization:
  1152  07E6                     
  1153                           global __initialization
  1154                           __initialization:
  1155  07E6                     psect	bssCOMMON,class=COMMON,space=1,noexec
  1156                           global __pbssCOMMON
  1157                           __pbssCOMMON:
  1158  007A                     _newTarget:
  1159  007A                            ds      1
  1160  007A                     
  1161                           _Tactive:
  1162  007B                            ds      1
  1163  007B                     
  1164                           _T1:
  1165  007C                            ds      1
  1166  007C                     
  1167                           psect	dataCOMMON,class=COMMON,space=1,noexec
  1168                           global __pdataCOMMON
  1169                           __pdataCOMMON:
  1170  007D                     	file	"./RAINBO-TX.h"
  1171                           	line	14
  1172                           _T2:
  1173  007D                            ds      1
  1174  007D                     
  1175                           psect	bssBANK0,class=BANK0,space=1,noexec
  1176                           global __pbssBANK0
  1177                           __pbssBANK0:
  1178  0020                     _Tdelta:
  1179  0020                            ds      4
  1180  0020                     
  1181                           _Ttrip:
  1182  0024                            ds      4
  1183  0024                     
  1184                           _Tavg:
  1185  0028                            ds      4
  1186  0028                     
  1187                           _Tcount:
  1188  002C                            ds      4
  1189  002C                     
  1190                           _Ttemp:
  1191  0030                            ds      2
  1192  0030                     
  1193                           _Tdir:
  1194  0032                            ds      1
  1195  0032                     
  1196                           _Target:
  1197  0033                            ds      1
  1198  0033                     
  1199                           psect	dataBANK0,class=BANK0,space=1,noexec
  1200                           global __pdataBANK0
  1201                           __pdataBANK0:
  1202  003B                     	file	"./RAINBO-TX.h"
  1203                           	line	16
  1204                           _T4:
  1205  003B                            ds      1
  1206  003B                     
  1207                           psect	dataBANK0
  1208                           	file	"./RAINBO-TX.h"
  1209                           	line	15
  1210                           _T3:
  1211  003C                            ds      1
  1212  003C                     
  1213                           	file	"C:\Users\MUSHA7~1\AppData\Local\Temp\svg."
  1214                           	line	#
  1215                           ; Initialize objects allocated to COMMON
  1216                           	global __pidataCOMMON,__pdataCOMMON
  1217                           psect cinit,class=CODE,delta=2,merge=1
  1218                           	fcall	__pidataCOMMON+0		;fetch initializer
  1219  07E6  3185  258D  3187   	movwf	__pdataCOMMON+0&07fh		
  1220  07E9  00FD               ; Initialize objects allocated to BANK0
  1221                           	global __pidataBANK0,__pdataBANK0
  1222                           psect cinit,class=CODE,delta=2,merge=1
  1223                           	fcall	__pidataBANK0+0		;fetch initializer
  1224  07EA  3185  258E  3187   	movwf	__pdataBANK0+0&07fh		
  1225  07ED  00BB               	fcall	__pidataBANK0+1		;fetch initializer
  1226  07EE  3185  258F  3187   	movwf	__pdataBANK0+1&07fh		
  1227  07F1  00BC               	line	#
  1228                           psect clrtext,class=CODE,delta=2
  1229                           global clear_ram0
  1230                           ;	Called with FSR0 containing the base address, and
  1231                           ;	WREG with the size to clear
  1232                           clear_ram0:
  1233  0595                     	clrwdt			;clear the watchdog before getting into this loop
  1234  0595  0064               clrloop0:
  1235  0596                     	clrf	indf0		;clear RAM location pointed to by FSR
  1236  0596  0180               	addfsr	0,1
  1237  0597  3101               	decfsz wreg		;Have we reached the end of clearing yet?
  1238  0598  0B89               	goto clrloop0	;have we reached the end yet?
  1239  0599  2D96               	retlw	0		;all done for this memory range, return
  1240  059A  3400               ; Clear objects allocated to COMMON
  1241                           psect cinit,class=CODE,delta=2,merge=1
  1242                           	global __pbssCOMMON
  1243                           	clrf	((__pbssCOMMON)+0)&07Fh
  1244  07F2  01FA               	clrf	((__pbssCOMMON)+1)&07Fh
  1245  07F3  01FB               	clrf	((__pbssCOMMON)+2)&07Fh
  1246  07F4  01FC               ; Clear objects allocated to BANK0
  1247                           psect cinit,class=CODE,delta=2,merge=1
  1248                           	global __pbssBANK0
  1249                           	movlw	low(__pbssBANK0)
  1250  07F5  3020               	movwf	fsr0l
  1251  07F6  0084               	movlw	high(__pbssBANK0)
  1252  07F7  3000               	movwf	fsr0h
  1253  07F8  0085               	movlw	014h
  1254  07F9  3014               	fcall	clear_ram0
  1255  07FA  3185  2595  3187   psect cinit,class=CODE,delta=2,merge=1
  1256                           global end_of_initialization,__end_of__initialization
  1257                           
  1258                           ;End of C runtime variable initialization code
  1259                           
  1260                           end_of_initialization:
  1261  07FD                     __end_of__initialization:
  1262  07FD                     movlb 0
  1263  07FD  0020               ljmp _main	;jump to C main() function
  1264  07FE  3186  2EC4         psect	cstackCOMMON,class=COMMON,space=1,noexec
  1265                           global __pcstackCOMMON
  1266                           __pcstackCOMMON:
  1267  0070                     ?_init:	; 1 bytes @ 0x0
  1268  0070                     ??_init:	; 1 bytes @ 0x0
  1269  0070                     ?_bitDelay:	; 1 bytes @ 0x0
  1270  0070                     ??_bitDelay:	; 1 bytes @ 0x0
  1271  0070                     ?_isTouched:	; 1 bytes @ 0x0
  1272  0070                     ??_isTouched:	; 1 bytes @ 0x0
  1273  0070                     ?_transmitBits:	; 1 bytes @ 0x0
  1274  0070                     ?_initTouch:	; 1 bytes @ 0x0
  1275  0070                     ??_initTouch:	; 1 bytes @ 0x0
  1276  0070                     ?_main:	; 2 bytes @ 0x0
  1277  0070                     	global	?___awdiv
  1278                           ?___awdiv:	; 2 bytes @ 0x0
  1279  0070                     	global	isTouched@tcount
  1280                           isTouched@tcount:	; 1 bytes @ 0x0
  1281  0070                     	global	___awdiv@divisor
  1282                           ___awdiv@divisor:	; 2 bytes @ 0x0
  1283  0070                     	ds	1
  1284  0070                     ??_transmitBits:	; 1 bytes @ 0x1
  1285  0071                     	ds	1
  1286  0071                     	global	transmitBits@i_74
  1287                           transmitBits@i_74:	; 1 bytes @ 0x2
  1288  0072                     	global	___awdiv@dividend
  1289                           ___awdiv@dividend:	; 2 bytes @ 0x2
  1290  0072                     	ds	1
  1291  0072                     	global	transmitBits@i
  1292                           transmitBits@i:	; 1 bytes @ 0x3
  1293  0073                     	global	initTouch@c
  1294                           initTouch@c:	; 1 bytes @ 0x3
  1295  0073                     	ds	1
  1296  0073                     ??___awdiv:	; 1 bytes @ 0x4
  1297  0074                     	global	initTouch@i
  1298                           initTouch@i:	; 1 bytes @ 0x4
  1299  0074                     	ds	1
  1300  0074                     	global	___awdiv@counter
  1301                           ___awdiv@counter:	; 1 bytes @ 0x5
  1302  0075                     	ds	1
  1303  0075                     	global	___awdiv@sign
  1304                           ___awdiv@sign:	; 1 bytes @ 0x6
  1305  0076                     	ds	1
  1306  0076                     	global	___awdiv@quotient
  1307                           ___awdiv@quotient:	; 2 bytes @ 0x7
  1308  0077                     	ds	2
  1309  0077                     	global	main@i
  1310                           main@i:	; 1 bytes @ 0x9
  1311  0079                     	ds	1
  1312  0079                     psect	cstackBANK0,class=BANK0,space=1,noexec
  1313                           global __pcstackBANK0
  1314                           __pcstackBANK0:
  1315  0034                     ??_main:	; 1 bytes @ 0x0
  1316  0034                     	ds	7
  1317  0034                     ;!
  1318                           ;!Data Sizes:
  1319                           ;!    Strings     0
  1320                           ;!    Constant    3
  1321                           ;!    Data        3
  1322                           ;!    BSS         23
  1323                           ;!    Persistent  0
  1324                           ;!    Stack       0
  1325                           ;!
  1326                           ;!Auto Spaces:
  1327                           ;!    Space          Size  Autos    Used
  1328                           ;!    COMMON           14     10      14
  1329                           ;!    BANK0            80      7      29
  1330                           ;!    BANK1            80      0       0
  1331                           ;!    BANK2            80      0       0
  1332                           
  1333                           ;!
  1334                           ;!Pointer List with Targets:
  1335                           ;!
  1336                           ;!    None.
  1337                           
  1338                           
  1339                           ;!
  1340                           ;!Critical Paths under _main in COMMON
  1341                           ;!
  1342                           ;!    _main->___awdiv
  1343                           ;!    _transmitBits->_isTouched
  1344                           ;!
  1345                           ;!Critical Paths under _main in BANK0
  1346                           ;!
  1347                           ;!    None.
  1348                           ;!
  1349                           ;!Critical Paths under _main in BANK1
  1350                           ;!
  1351                           ;!    None.
  1352                           ;!
  1353                           ;!Critical Paths under _main in BANK2
  1354                           ;!
  1355                           ;!    None.
  1356                           
  1357 ;;
  1358 ;;Main: autosize = 0, tempsize = 7, incstack = 0, save=0
  1359 ;;
  1360                           
  1361                           ;!
  1362                           ;!Call Graph Tables:
  1363                           ;!
  1364                           ;! ---------------------------------------------------------------------------------
  1365                           ;! (Depth) Function   	        Calls       Base Space   Used Autos Params    Refs
  1366                           ;! ---------------------------------------------------------------------------------
  1367                           ;! (0) _main                                                 8     8      0    1470
  1368                           ;!                                              9 COMMON     1     1      0
  1369                           ;!                                              0 BANK0      7     7      0
  1370                           ;!                            ___awdiv
  1371                           ;!                               _init
  1372                           ;!                          _initTouch
  1373                           ;!                       _transmitBits
  1374                           ;! ---------------------------------------------------------------------------------
  1375                           ;! (1) _transmitBits                                         3     3      0     136
  1376                           ;!                                              1 COMMON     3     3      0
  1377                           ;!                           _bitDelay
  1378                           ;!                          _isTouched
  1379                           ;! ---------------------------------------------------------------------------------
  1380                           ;! (2) _isTouched                                            1     1      0      22
  1381                           ;!                                              0 COMMON     1     1      0
  1382                           ;! ---------------------------------------------------------------------------------
  1383                           ;! (2) _bitDelay                                             0     0      0       0
  1384                           ;! ---------------------------------------------------------------------------------
  1385                           ;! (1) _initTouch                                            5     5      0     136
  1386                           ;!                                              0 COMMON     5     5      0
  1387                           ;! ---------------------------------------------------------------------------------
  1388                           ;! (1) _init                                                 0     0      0       0
  1389                           ;! ---------------------------------------------------------------------------------
  1390                           ;! (1) ___awdiv                                              9     5      4     756
  1391                           ;!                                              0 COMMON     9     5      4
  1392                           ;! ---------------------------------------------------------------------------------
  1393                           ;! Estimated maximum stack depth 2
  1394                           ;! ---------------------------------------------------------------------------------
  1395                           ;!
  1396                           ;! Call Graph Graphs:
  1397                           ;!
  1398                           ;! _main (ROOT)
  1399                           ;!   ___awdiv
  1400                           ;!   _init
  1401                           ;!   _initTouch
  1402                           ;!   _transmitBits
  1403                           ;!     _bitDelay
  1404                           ;!     _isTouched
  1405                           ;!
  1406                           
  1407                           ;! Address spaces:
  1408                           
  1409                           ;!Name               Size   Autos  Total    Cost      Usage
  1410                           ;!BIGRAM              F0      0       0       0        0.0%
  1411                           ;!EEDATA             100      0       0       0        0.0%
  1412                           ;!NULL                 0      0       0       0        0.0%
  1413                           ;!CODE                 0      0       0       0        0.0%
  1414                           ;!BITCOMMON            E      0       0       1        0.0%
  1415                           ;!BITSFR0              0      0       0       1        0.0%
  1416                           ;!SFR0                 0      0       0       1        0.0%
  1417                           ;!COMMON               E      A       E       2      100.0%
  1418                           ;!BITSFR1              0      0       0       2        0.0%
  1419                           ;!SFR1                 0      0       0       2        0.0%
  1420                           ;!BITSFR2              0      0       0       3        0.0%
  1421                           ;!SFR2                 0      0       0       3        0.0%
  1422                           ;!STACK                0      0       0       3        0.0%
  1423                           ;!BITSFR3              0      0       0       4        0.0%
  1424                           ;!SFR3                 0      0       0       4        0.0%
  1425                           ;!ABS                  0      0      2B       4        0.0%
  1426                           ;!BITBANK0            50      0       0       5        0.0%
  1427                           ;!BITSFR4              0      0       0       5        0.0%
  1428                           ;!SFR4                 0      0       0       5        0.0%
  1429                           ;!BANK0               50      7      1D       6       36.3%
  1430                           ;!BITSFR5              0      0       0       6        0.0%
  1431                           ;!SFR5                 0      0       0       6        0.0%
  1432                           ;!BITBANK1            50      0       0       7        0.0%
  1433                           ;!BITSFR6              0      0       0       7        0.0%
  1434                           ;!SFR6                 0      0       0       7        0.0%
  1435                           ;!BANK1               50      0       0       8        0.0%
  1436                           ;!BITSFR7              0      0       0       8        0.0%
  1437                           ;!SFR7                 0      0       0       8        0.0%
  1438                           ;!BITBANK2            50      0       0       9        0.0%
  1439                           ;!BITSFR8              0      0       0       9        0.0%
  1440                           ;!SFR8                 0      0       0       9        0.0%
  1441                           ;!BANK2               50      0       0      10        0.0%
  1442                           ;!BITSFR9              0      0       0      10        0.0%
  1443                           ;!SFR9                 0      0       0      10        0.0%
  1444                           ;!BITSFR10             0      0       0      11        0.0%
  1445                           ;!SFR10                0      0       0      11        0.0%
  1446                           ;!DATA                 0      0      2B      11        0.0%
  1447                           ;!BITSFR11             0      0       0      12        0.0%
  1448                           ;!SFR11                0      0       0      12        0.0%
  1449                           ;!BITSFR12             0      0       0      13        0.0%
  1450                           ;!SFR12                0      0       0      13        0.0%
  1451                           ;!BITSFR13             0      0       0      14        0.0%
  1452                           ;!SFR13                0      0       0      14        0.0%
  1453                           ;!BITSFR14             0      0       0      15        0.0%
  1454                           ;!SFR14                0      0       0      15        0.0%
  1455                           ;!BITSFR15             0      0       0      16        0.0%
  1456                           ;!SFR15                0      0       0      16        0.0%
  1457                           ;!BITSFR16             0      0       0      17        0.0%
  1458                           ;!SFR16                0      0       0      17        0.0%
  1459                           ;!BITSFR17             0      0       0      18        0.0%
  1460                           ;!SFR17                0      0       0      18        0.0%
  1461                           ;!BITSFR18             0      0       0      19        0.0%
  1462                           ;!SFR18                0      0       0      19        0.0%
  1463                           ;!BITSFR19             0      0       0      20        0.0%
  1464                           ;!SFR19                0      0       0      20        0.0%
  1465                           ;!BITSFR20             0      0       0      21        0.0%
  1466                           ;!SFR20                0      0       0      21        0.0%
  1467                           ;!BITSFR21             0      0       0      22        0.0%
  1468                           ;!SFR21                0      0       0      22        0.0%
  1469                           ;!BITSFR22             0      0       0      23        0.0%
  1470                           ;!SFR22                0      0       0      23        0.0%
  1471                           ;!BITSFR23             0      0       0      24        0.0%
  1472                           ;!SFR23                0      0       0      24        0.0%
  1473                           ;!BITSFR24             0      0       0      25        0.0%
  1474                           ;!SFR24                0      0       0      25        0.0%
  1475                           ;!BITSFR25             0      0       0      26        0.0%
  1476                           ;!SFR25                0      0       0      26        0.0%
  1477                           ;!BITSFR26             0      0       0      27        0.0%
  1478                           ;!SFR26                0      0       0      27        0.0%
  1479                           ;!BITSFR27             0      0       0      28        0.0%
  1480                           ;!SFR27                0      0       0      28        0.0%
  1481                           ;!BITSFR28             0      0       0      29        0.0%
  1482                           ;!SFR28                0      0       0      29        0.0%
  1483                           ;!BITSFR29             0      0       0      30        0.0%
  1484                           ;!SFR29                0      0       0      30        0.0%
  1485                           ;!BITSFR30             0      0       0      31        0.0%
  1486                           ;!SFR30                0      0       0      31        0.0%
  1487                           ;!BITSFR31             0      0       0      32        0.0%
  1488                           ;!SFR31                0      0       0      32        0.0%
  1489                           
  1490                           	global	_main
  1491                           
  1492 ;; *************** function _main *****************
  1493 ;; Defined at:
  1494 ;;		line 105 in file "Touchsensor.c"
  1495 ;; Parameters:    Size  Location     Type
  1496 ;;		None
  1497 ;; Auto vars:     Size  Location     Type
  1498 ;;  i               1    9[COMMON] unsigned char 
  1499 ;; Return value:  Size  Location     Type
  1500 ;;                  2  108[None  ] int 
  1501 ;; Registers used:
  1502 ;;		wreg, fsr0l, fsr0h, fsr1l, fsr1h, status,2, status,0, pclath, cstack
  1503 ;; Tracked objects:
  1504 ;;		On entry : B1F/0
  1505 ;;		On exit  : 0/0
  1506 ;;		Unchanged: 0/0
  1507 ;; Data sizes:     COMMON   BANK0   BANK1   BANK2
  1508 ;;      Params:         0       0       0       0
  1509 ;;      Locals:         1       0       0       0
  1510 ;;      Temps:          0       7       0       0
  1511 ;;      Totals:         1       7       0       0
  1512 ;;Total ram usage:        8 bytes
  1513 ;; Hardware stack levels required when called:    2
  1514 ;; This function calls:
  1515 ;;		___awdiv
  1516 ;;		_init
  1517 ;;		_initTouch
  1518 ;;		_transmitBits
  1519 ;; This function is called by:
  1520 ;;		Startup code after reset
  1521 ;; This function uses a non-reentrant model
  1522 ;;
  1523                           psect	maintext,global,class=CODE,delta=2,merge=1,split=1,group=0
  1524                           	file	"Touchsensor.c"
  1525                           	line	105
  1526                           global __pmaintext
  1527                           __pmaintext:	;psect for function _main
  1528  06C4                     psect	maintext
  1529                           	file	"Touchsensor.c"
  1530                           	line	105
  1531                           	global	__size_of_main
  1532                           	__size_of_main	equ	__end_of_main-_main
  1533  0122                     	
  1534                           _main:	
  1535  06C4                     ;incstack = 0
  1536                           	opt	stack 14
  1537                           ; Regs used in _main: [wreg-fsr1h+status,2+status,0+pclath+cstack]
  1538                           	line	107
  1539                           	
  1540                           l1003:	
  1541  06C4                     ;Touchsensor.c: 107:  init();
  1542                           	fcall	_init
  1543  06C4  3185  25A6  3186   	line	108
  1544                           	
  1545                           l1005:	
  1546  06C7                     ;Touchsensor.c: 108:  initTouch();
  1547                           	fcall	_initTouch
  1548  06C7  3185  25C0  3186   	line	109
  1549                           	
  1550                           l1007:	
  1551  06CA                     ;Touchsensor.c: 109:  RA5= 0;
  1552                           	movlb 0	; select bank0
  1553  06CA  0020               	bcf	(101/8),(101)&7	;volatile
  1554  06CB  128C               	goto	l1009
  1555  06CC  2ECD               	line	112
  1556                           ;Touchsensor.c: 112:  while(1)
  1557                           	
  1558                           l109:	
  1559  06CD                     	line	114
  1560                           	
  1561                           l1009:	
  1562  06CD                     ;Touchsensor.c: 113:  {;Touchsensor.c: 114:   SWDTEN = 0;
  1563                           	movlb 1	; select bank1
  1564  06CD  0021               	bcf	(1208/8)^080h,(1208)&7	;volatile
  1565  06CE  1017               	line	116
  1566                           	
  1567                           l1011:	
  1568  06CF                     ;Touchsensor.c: 116:   Tactive = 0;
  1569                           	clrf	(_Tactive)
  1570  06CF  01FB               	line	118
  1571                           	
  1572                           l1013:	
  1573  06D0                     ;Touchsensor.c: 118:   for(unsigned char i = 0; i != 4; i++)
  1574                           	clrf	(main@i)
  1575  06D0  01F9               	
  1576                           l1015:	
  1577  06D1                     		movlw	4
  1578  06D1  3004               	xorwf	((main@i)),w
  1579  06D2  0679               	btfss	status,2
  1580  06D3  1D03               	goto	u611
  1581  06D4  2ED6               	goto	u610
  1582  06D5  2ED7               u611:
  1583  06D6                     	goto	l1019
  1584  06D6  2ED9               u610:
  1585  06D7                     	goto	l1043
  1586  06D7  2FA6               	
  1587                           l1017:	
  1588  06D8                     	goto	l1043
  1589  06D8  2FA6               	
  1590                           l110:	
  1591  06D9                     	line	120
  1592                           	
  1593                           l1019:	
  1594  06D9                     ;Touchsensor.c: 119:   {;Touchsensor.c: 120:    CPSCON1 = i;
  1595                           	movf	(main@i),w
  1596  06D9  0879               	movlb 0	; select bank0
  1597  06DA  0020               	movwf	(31)	;volatile
  1598  06DB  009F               	line	121
  1599                           	
  1600                           l1021:	
  1601  06DC                     ;Touchsensor.c: 121:    TMR0 = 0;
  1602                           	clrf	(21)	;volatile
  1603  06DC  0195               	line	122
  1604                           	
  1605                           l1023:	
  1606  06DD                     ;Touchsensor.c: 122:    _delay((unsigned long)((2)*(4000000/4000.0)));
  1607                           	opt asmopt_push
  1608                           opt asmopt_off
  1609                           movlw	3
  1610  06DD  3003               	movlb 0	; select bank0
  1611  06DE  0020               movwf	((??_main+0)+0),f
  1612  06DF  00B4               	movlw	151
  1613  06E0  3097               u697:
  1614  06E1                     decfsz	wreg
  1615  06E1  0B89               	goto	u697
  1616  06E2  2EE1               	decfsz	((??_main+0)+0),f
  1617  06E3  0BB4               	goto	u697
  1618  06E4  2EE1               	nop2
  1619  06E5  3200               opt asmopt_pop
  1620                           
  1621                           	line	123
  1622                           	
  1623                           l1025:	
  1624  06E6                     ;Touchsensor.c: 123:    Tcount[i] = TMR0;
  1625                           	movlb 0	; select bank0
  1626  06E6  0020               	movf	(21),w	;volatile
  1627  06E7  0815               	movwf	(??_main+0)+0
  1628  06E8  00B4               	movf	(main@i),w
  1629  06E9  0879               	addlw	low(_Tcount|((0x0)<<8))&0ffh
  1630  06EA  3E2C               	movwf	fsr1l
  1631  06EB  0086               	clrf fsr1h	
  1632  06EC  0187               	
  1633                           	movf	(??_main+0)+0,w
  1634  06ED  0834               	movwf	indf1
  1635  06EE  0081               	line	124
  1636                           	
  1637                           l1027:	
  1638  06EF                     ;Touchsensor.c: 124:    Ttrip[i] = Tavg[i] / 4;
  1639                           	movlw	04h
  1640  06EF  3004               	movwf	(___awdiv@divisor)
  1641  06F0  00F0               	movlw	0
  1642  06F1  3000               	movwf	((___awdiv@divisor))+1
  1643  06F2  00F1               	movf	(main@i),w
  1644  06F3  0879               	addlw	low(_Tavg|((0x0)<<8))&0ffh
  1645  06F4  3E28               	movwf	fsr1l
  1646  06F5  0086               	clrf fsr1h	
  1647  06F6  0187               	
  1648                           	movf	indf1,w
  1649  06F7  0801               	movwf	(??_main+0)+0
  1650  06F8  00B4               	clrf	(??_main+0)+0+1
  1651  06F9  01B5               	movf	0+(??_main+0)+0,w
  1652  06FA  0834               	movwf	(___awdiv@dividend)
  1653  06FB  00F2               	movf	1+(??_main+0)+0,w
  1654  06FC  0835               	movwf	(___awdiv@dividend+1)
  1655  06FD  00F3               	fcall	___awdiv
  1656  06FE  3186  265B  3186   	movf	(0+(?___awdiv)),w
  1657  0701  0870               	movlb 0	; select bank0
  1658  0702  0020               	movwf	(??_main+2)+0
  1659  0703  00B6               	movf	(main@i),w
  1660  0704  0879               	addlw	low(_Ttrip|((0x0)<<8))&0ffh
  1661  0705  3E24               	movwf	fsr1l
  1662  0706  0086               	clrf fsr1h	
  1663  0707  0187               	
  1664                           	movf	(??_main+2)+0,w
  1665  0708  0836               	movwf	indf1
  1666  0709  0081               	line	125
  1667                           	
  1668                           l1029:	
  1669  070A                     ;Touchsensor.c: 125:    if(Tcount[i] < (Tavg[i] - Ttrip[i]))
  1670                           	movf	(main@i),w
  1671  070A  0879               	addlw	low(_Ttrip|((0x0)<<8))&0ffh
  1672  070B  3E24               	movwf	fsr1l
  1673  070C  0086               	clrf fsr1h	
  1674  070D  0187               	
  1675                           	movf	indf1,w
  1676  070E  0801               	movwf	(??_main+0)+0
  1677  070F  00B4               	clrf	(??_main+0)+0+1
  1678  0710  01B5               	comf	(??_main+0)+0,f
  1679  0711  09B4               	comf	(??_main+0)+1,f
  1680  0712  09B5               	incf	(??_main+0)+0,f
  1681  0713  0AB4               	skipnz
  1682  0714  1903               	incf	(??_main+0)+1,f
  1683  0715  0AB5               	movf	(main@i),w
  1684  0716  0879               	addlw	low(_Tavg|((0x0)<<8))&0ffh
  1685  0717  3E28               	movwf	fsr1l
  1686  0718  0086               	clrf fsr1h	
  1687  0719  0187               	
  1688                           	movf	indf1,w
  1689  071A  0801               	addwf	0+(??_main+0)+0,w
  1690  071B  0734               	movwf	(??_main+2)+0
  1691  071C  00B6               	movf	1+(??_main+0)+0,w
  1692  071D  0835               	skipnc
  1693  071E  1803               	incf	1+(??_main+0)+0,w
  1694  071F  0A35               	movwf	((??_main+2)+0)+1
  1695  0720  00B7               	movf	(main@i),w
  1696  0721  0879               	addlw	low(_Tcount|((0x0)<<8))&0ffh
  1697  0722  3E2C               	movwf	fsr1l
  1698  0723  0086               	clrf fsr1h	
  1699  0724  0187               	
  1700                           	movf	1+(??_main+2)+0,w
  1701  0725  0837               	xorlw	80h
  1702  0726  3A80               	sublw	080h
  1703  0727  3C80               	skipz
  1704  0728  1D03               	goto	u625
  1705  0729  2F2C               	movf	0+(??_main+2)+0,w
  1706  072A  0836               	subwf	indf1,w
  1707  072B  0201               u625:
  1708  072C                     
  1709                           	skipnc
  1710  072C  1803               	goto	u621
  1711  072D  2F2F               	goto	u620
  1712  072E  2F30               u621:
  1713  072F                     	goto	l1035
  1714  072F  2F4D               u620:
  1715  0730                     	line	127
  1716                           	
  1717                           l1031:	
  1718  0730                     ;Touchsensor.c: 126:    {;Touchsensor.c: 127:     Tactive ++;
  1719                           	movlw	low(01h)
  1720  0730  3001               	movlb 0	; select bank0
  1721  0731  0020               	movwf	(??_main+0)+0
  1722  0732  00B4               	movf	(??_main+0)+0,w
  1723  0733  0834               	addwf	(_Tactive),f
  1724  0734  07FB               	line	128
  1725                           ;Touchsensor.c: 128:     newTarget = i + 1;
  1726                           	movf	(main@i),w
  1727  0735  0879               	addlw	01h
  1728  0736  3E01               	movwf	(??_main+0)+0
  1729  0737  00B4               	movf	(??_main+0)+0,w
  1730  0738  0834               	movwf	(_newTarget)
  1731  0739  00FA               	line	129
  1732                           	
  1733                           l1033:	
  1734  073A                     ;Touchsensor.c: 129:     Tdelta[i] = Tavg[i] - Tcount[i];
  1735                           	movf	(main@i),w
  1736  073A  0879               	addlw	low(_Tavg|((0x0)<<8))&0ffh
  1737  073B  3E28               	movwf	fsr1l
  1738  073C  0086               	clrf fsr1h	
  1739  073D  0187               	
  1740                           	movf	(main@i),w
  1741  073E  0879               	addlw	low(_Tcount|((0x0)<<8))&0ffh
  1742  073F  3E2C               	movwf	fsr0l
  1743  0740  0084               	clrf fsr0h	
  1744  0741  0185               	
  1745                           	decf	indf0,w
  1746  0742  0300               	xorlw	0ffh
  1747  0743  3AFF               	addwf	indf1,w
  1748  0744  0701               	movwf	(??_main+0)+0
  1749  0745  00B4               	movf	(main@i),w
  1750  0746  0879               	addlw	low(_Tdelta|((0x0)<<8))&0ffh
  1751  0747  3E20               	movwf	fsr1l
  1752  0748  0086               	clrf fsr1h	
  1753  0749  0187               	
  1754                           	movf	(??_main+0)+0,w
  1755  074A  0834               	movwf	indf1
  1756  074B  0081               	line	130
  1757                           ;Touchsensor.c: 130:    }
  1758                           	goto	l1039
  1759  074C  2F9B               	line	131
  1760                           ;Touchsensor.c: 131:    else
  1761                           	
  1762                           l112:	
  1763  074D                     	line	133
  1764                           	
  1765                           l1035:	
  1766  074D                     ;Touchsensor.c: 132:    {;Touchsensor.c: 133:     Tdelta[i] = Tavg[i] - Tcount[i];
  1767                           	movf	(main@i),w
  1768  074D  0879               	addlw	low(_Tavg|((0x0)<<8))&0ffh
  1769  074E  3E28               	movwf	fsr1l
  1770  074F  0086               	clrf fsr1h	
  1771  0750  0187               	
  1772                           	movf	(main@i),w
  1773  0751  0879               	addlw	low(_Tcount|((0x0)<<8))&0ffh
  1774  0752  3E2C               	movwf	fsr0l
  1775  0753  0084               	clrf fsr0h	
  1776  0754  0185               	
  1777                           	decf	indf0,w
  1778  0755  0300               	xorlw	0ffh
  1779  0756  3AFF               	addwf	indf1,w
  1780  0757  0701               	movlb 0	; select bank0
  1781  0758  0020               	movwf	(??_main+0)+0
  1782  0759  00B4               	movf	(main@i),w
  1783  075A  0879               	addlw	low(_Tdelta|((0x0)<<8))&0ffh
  1784  075B  3E20               	movwf	fsr1l
  1785  075C  0086               	clrf fsr1h	
  1786  075D  0187               	
  1787                           	movf	(??_main+0)+0,w
  1788  075E  0834               	movwf	indf1
  1789  075F  0081               	line	134
  1790                           	
  1791                           l1037:	
  1792  0760                     ;Touchsensor.c: 134:     Tavg[i] = Tavg[i] - (Tavg[i] / 16) + (Tcount[i] / 16);
  1793                           	movf	(main@i),w
  1794  0760  0879               	addlw	low(_Tavg|((0x0)<<8))&0ffh
  1795  0761  3E28               	movwf	fsr1l
  1796  0762  0086               	clrf fsr1h	
  1797  0763  0187               	
  1798                           	movlw	010h
  1799  0764  3010               	movwf	(___awdiv@divisor)
  1800  0765  00F0               	movlw	0
  1801  0766  3000               	movwf	((___awdiv@divisor))+1
  1802  0767  00F1               	movf	(main@i),w
  1803  0768  0879               	addlw	low(_Tcount|((0x0)<<8))&0ffh
  1804  0769  3E2C               	movwf	fsr0l
  1805  076A  0084               	clrf fsr0h	
  1806  076B  0185               	
  1807                           	movf	indf0,w
  1808  076C  0800               	movwf	(??_main+0)+0
  1809  076D  00B4               	clrf	(??_main+0)+0+1
  1810  076E  01B5               	movf	0+(??_main+0)+0,w
  1811  076F  0834               	movwf	(___awdiv@dividend)
  1812  0770  00F2               	movf	1+(??_main+0)+0,w
  1813  0771  0835               	movwf	(___awdiv@dividend+1)
  1814  0772  00F3               	fcall	___awdiv
  1815  0773  3186  265B  3186   	movf	(0+?___awdiv),w
  1816  0776  0870               	movlb 0	; select bank0
  1817  0777  0020               	movwf	(??_main+2)+0
  1818  0778  00B6               	movf	(1+?___awdiv),w
  1819  0779  0871               	movwf	((??_main+2)+0+1)
  1820  077A  00B7               	movlw	010h
  1821  077B  3010               	movwf	(___awdiv@divisor)
  1822  077C  00F0               	movlw	0
  1823  077D  3000               	movwf	((___awdiv@divisor))+1
  1824  077E  00F1               	movf	(main@i),w
  1825  077F  0879               	addlw	low(_Tavg|((0x0)<<8))&0ffh
  1826  0780  3E28               	movwf	fsr0l
  1827  0781  0084               	clrf fsr0h	
  1828  0782  0185               	
  1829                           	movf	indf0,w
  1830  0783  0800               	movwf	(??_main+4)+0
  1831  0784  00B8               	clrf	(??_main+4)+0+1
  1832  0785  01B9               	movf	0+(??_main+4)+0,w
  1833  0786  0838               	movwf	(___awdiv@dividend)
  1834  0787  00F2               	movf	1+(??_main+4)+0,w
  1835  0788  0839               	movwf	(___awdiv@dividend+1)
  1836  0789  00F3               	fcall	___awdiv
  1837  078A  3186  265B  3186   	movf	(0+(?___awdiv)),w
  1838  078D  0870               	xorlw	0ffh
  1839  078E  3AFF               	addlw	1
  1840  078F  3E01               	movlb 0	; select bank0
  1841  0790  0020               	addwf	0+(??_main+2)+0,w
  1842  0791  0736               	addwf	indf1,w
  1843  0792  0701               	movwf	(??_main+6)+0
  1844  0793  00BA               	movf	(main@i),w
  1845  0794  0879               	addlw	low(_Tavg|((0x0)<<8))&0ffh
  1846  0795  3E28               	movwf	fsr1l
  1847  0796  0086               	clrf fsr1h	
  1848  0797  0187               	
  1849                           	movf	(??_main+6)+0,w
  1850  0798  083A               	movwf	indf1
  1851  0799  0081               	goto	l1039
  1852  079A  2F9B               	line	135
  1853                           ;Touchsensor.c: 135:    }
  1854                           	
  1855                           l113:	
  1856  079B                     	line	136
  1857                           	
  1858                           l1039:	
  1859  079B                     ;Touchsensor.c: 136:   }
  1860                           	movlw	low(01h)
  1861  079B  3001               	movwf	(??_main+0)+0
  1862  079C  00B4               	movf	(??_main+0)+0,w
  1863  079D  0834               	addwf	(main@i),f
  1864  079E  07F9               	
  1865                           l1041:	
  1866  079F                     		movlw	4
  1867  079F  3004               	xorwf	((main@i)),w
  1868  07A0  0679               	btfss	status,2
  1869  07A1  1D03               	goto	u631
  1870  07A2  2FA4               	goto	u630
  1871  07A3  2FA5               u631:
  1872  07A4                     	goto	l1019
  1873  07A4  2ED9               u630:
  1874  07A5                     	goto	l1043
  1875  07A5  2FA6               	
  1876                           l111:	
  1877  07A6                     	line	138
  1878                           	
  1879                           l1043:	
  1880  07A6                     ;Touchsensor.c: 138:   if(Tactive == 0)
  1881                           	movf	((_Tactive)),w
  1882  07A6  087B               	btfss	status,2
  1883  07A7  1D03               	goto	u641
  1884  07A8  2FAA               	goto	u640
  1885  07A9  2FAB               u641:
  1886  07AA                     	goto	l1047
  1887  07AA  2FAD               u640:
  1888  07AB                     	line	140
  1889                           	
  1890                           l1045:	
  1891  07AB                     ;Touchsensor.c: 139:   {;Touchsensor.c: 140:    newTarget = 0;
  1892                           	clrf	(_newTarget)
  1893  07AB  01FA               	goto	l1047
  1894  07AC  2FAD               	line	141
  1895                           ;Touchsensor.c: 141:   }
  1896                           	
  1897                           l114:	
  1898  07AD                     	line	145
  1899                           	
  1900                           l1047:	
  1901  07AD                     ;Touchsensor.c: 145:   if(Tactive > 1)
  1902                           	movlw	low(02h)
  1903  07AD  3002               	subwf	(_Tactive),w
  1904  07AE  027B               	skipc
  1905  07AF  1C03               	goto	u651
  1906  07B0  2FB2               	goto	u650
  1907  07B1  2FB3               u651:
  1908  07B2                     	goto	l115
  1909  07B2  2FD8               u650:
  1910  07B3                     	line	147
  1911                           	
  1912                           l1049:	
  1913  07B3                     ;Touchsensor.c: 146:   {;Touchsensor.c: 147:    if(Tdelta[1] > Tdelta[2])
  1914                           	movlb 0	; select bank0
  1915  07B3  0020               	movf	0+(_Tdelta)+01h,w
  1916  07B4  0821               	subwf	0+(_Tdelta)+02h,w
  1917  07B5  0222               	skipnc
  1918  07B6  1803               	goto	u661
  1919  07B7  2FB9               	goto	u660
  1920  07B8  2FBA               u661:
  1921  07B9                     	goto	l1055
  1922  07B9  2FC8               u660:
  1923  07BA                     	line	149
  1924                           	
  1925                           l1051:	
  1926  07BA                     ;Touchsensor.c: 148:    {;Touchsensor.c: 149:     newTarget = 2;
  1927                           	movlw	low(02h)
  1928  07BA  3002               	movwf	(??_main+0)+0
  1929  07BB  00B4               	movf	(??_main+0)+0,w
  1930  07BC  0834               	movwf	(_newTarget)
  1931  07BD  00FA               	line	150
  1932                           ;Touchsensor.c: 150:     if(Tdelta[0] > Tdelta[1])
  1933                           	movf	(_Tdelta),w
  1934  07BE  0820               	subwf	0+(_Tdelta)+01h,w
  1935  07BF  0221               	skipnc
  1936  07C0  1803               	goto	u671
  1937  07C1  2FC3               	goto	u670
  1938  07C2  2FC4               u671:
  1939  07C3                     	goto	l115
  1940  07C3  2FD8               u670:
  1941  07C4                     	line	151
  1942                           	
  1943                           l1053:	
  1944  07C4                     ;Touchsensor.c: 151:      newTarget = 1;
  1945                           	clrf	(_newTarget)
  1946  07C4  01FA               	incf	(_newTarget),f
  1947  07C5  0AFA               	goto	l115
  1948  07C6  2FD8               	
  1949                           l117:	
  1950  07C7                     	line	152
  1951                           ;Touchsensor.c: 152:    }
  1952                           	goto	l115
  1953  07C7  2FD8               	line	153
  1954                           ;Touchsensor.c: 153:    else
  1955                           	
  1956                           l116:	
  1957  07C8                     	line	155
  1958                           	
  1959                           l1055:	
  1960  07C8                     ;Touchsensor.c: 154:    {;Touchsensor.c: 155:     newTarget = 3;
  1961                           	movlw	low(03h)
  1962  07C8  3003               	movwf	(??_main+0)+0
  1963  07C9  00B4               	movf	(??_main+0)+0,w
  1964  07CA  0834               	movwf	(_newTarget)
  1965  07CB  00FA               	line	156
  1966                           ;Touchsensor.c: 156:     if(Tdelta[3] > Tdelta[2])
  1967                           	movf	0+(_Tdelta)+03h,w
  1968  07CC  0823               	subwf	0+(_Tdelta)+02h,w
  1969  07CD  0222               	skipnc
  1970  07CE  1803               	goto	u681
  1971  07CF  2FD1               	goto	u680
  1972  07D0  2FD2               u681:
  1973  07D1                     	goto	l115
  1974  07D1  2FD8               u680:
  1975  07D2                     	line	157
  1976                           	
  1977                           l1057:	
  1978  07D2                     ;Touchsensor.c: 157:      newTarget = 4;
  1979                           	movlw	low(04h)
  1980  07D2  3004               	movwf	(??_main+0)+0
  1981  07D3  00B4               	movf	(??_main+0)+0,w
  1982  07D4  0834               	movwf	(_newTarget)
  1983  07D5  00FA               	goto	l115
  1984  07D6  2FD8               	
  1985                           l119:	
  1986  07D7                     	goto	l115
  1987  07D7  2FD8               	line	158
  1988                           ;Touchsensor.c: 158:    }
  1989                           	
  1990                           l118:	
  1991  07D8                     	line	159
  1992                           ;Touchsensor.c: 159:   }
  1993                           	
  1994                           l115:	
  1995  07D8                     	line	161
  1996                           ;Touchsensor.c: 161:   Target = newTarget;
  1997                           	movf	(_newTarget),w
  1998  07D8  087A               	movlb 0	; select bank0
  1999  07D9  0020               	movwf	(??_main+0)+0
  2000  07DA  00B4               	movf	(??_main+0)+0,w
  2001  07DB  0834               	movwf	(_Target)
  2002  07DC  00B3               	line	164
  2003                           	
  2004                           l1059:	
  2005  07DD                     ;Touchsensor.c: 164:         transmitBits();
  2006                           	fcall	_transmitBits
  2007  07DD  3186  260B  3186   	line	165
  2008                           	
  2009                           l1061:	
  2010  07E0                     ;Touchsensor.c: 165:   SWDTEN = 1;
  2011                           	movlb 1	; select bank1
  2012  07E0  0021               	bsf	(1208/8)^080h,(1208)&7	;volatile
  2013  07E1  1417               	goto	l1009
  2014  07E2  2ECD               	line	167
  2015                           ;Touchsensor.c: 167:  }
  2016                           	
  2017                           l120:	
  2018  07E3                     	goto	l1009
  2019  07E3  2ECD               	
  2020                           l121:	
  2021  07E4                     	line	168
  2022                           	
  2023                           l122:	
  2024  07E4                     	global	start
  2025                           	ljmp	start
  2026  07E4  3180  2802         	opt stack 0
  2027                           GLOBAL	__end_of_main
  2028                           	__end_of_main:
  2029  07E6                     	signat	_main,90
  2030                           	global	_transmitBits
  2031                           
  2032 ;; *************** function _transmitBits *****************
  2033 ;; Defined at:
  2034 ;;		line 57 in file "Touchsensor.c"
  2035 ;; Parameters:    Size  Location     Type
  2036 ;;		None
  2037 ;; Auto vars:     Size  Location     Type
  2038 ;;  i               1    2[COMMON] unsigned char 
  2039 ;;  i               1    3[COMMON] unsigned char 
  2040 ;; Return value:  Size  Location     Type
  2041 ;;                  1    wreg      void 
  2042 ;; Registers used:
  2043 ;;		wreg, fsr1l, fsr1h, status,2, status,0, pclath, cstack
  2044 ;; Tracked objects:
  2045 ;;		On entry : 0/0
  2046 ;;		On exit  : 0/0
  2047 ;;		Unchanged: 0/0
  2048 ;; Data sizes:     COMMON   BANK0   BANK1   BANK2
  2049 ;;      Params:         0       0       0       0
  2050 ;;      Locals:         2       0       0       0
  2051 ;;      Temps:          1       0       0       0
  2052 ;;      Totals:         3       0       0       0
  2053 ;;Total ram usage:        3 bytes
  2054 ;; Hardware stack levels used:    1
  2055 ;; Hardware stack levels required when called:    1
  2056 ;; This function calls:
  2057 ;;		_bitDelay
  2058 ;;		_isTouched
  2059 ;; This function is called by:
  2060 ;;		_main
  2061 ;; This function uses a non-reentrant model
  2062 ;;
  2063                           psect	text1,local,class=CODE,delta=2,merge=1,group=0
  2064                           	line	57
  2065                           global __ptext1
  2066                           __ptext1:	;psect for function _transmitBits
  2067  060B                     psect	text1
  2068                           	file	"Touchsensor.c"
  2069                           	line	57
  2070                           	global	__size_of_transmitBits
  2071                           	__size_of_transmitBits	equ	__end_of_transmitBits-_transmitBits
  2072  0050                     	
  2073                           _transmitBits:	
  2074  060B                     ;incstack = 0
  2075                           	opt	stack 14
  2076                           ; Regs used in _transmitBits: [wreg+fsr1l+fsr1h+status,2+status,0+pclath+cstack]
  2077                           	line	61
  2078                           	
  2079                           l871:	
  2080  060B                     ;Touchsensor.c: 61:     RA5 = 1;
  2081                           	movlb 0	; select bank0
  2082  060B  0020               	bsf	(101/8),(101)&7	;volatile
  2083  060C  168C               	line	62
  2084                           	
  2085                           l873:	
  2086  060D                     ;Touchsensor.c: 62:     bitDelay();
  2087                           	fcall	_bitDelay
  2088  060D  3185  2590  3186   	line	63
  2089                           	
  2090                           l875:	
  2091  0610                     ;Touchsensor.c: 63:     for(unsigned char i = 0; i<4; i++){
  2092                           	clrf	(transmitBits@i)
  2093  0610  01F3               	
  2094                           l877:	
  2095  0611                     	movlw	low(04h)
  2096  0611  3004               	subwf	(transmitBits@i),w
  2097  0612  0273               	skipc
  2098  0613  1C03               	goto	u371
  2099  0614  2E16               	goto	u370
  2100  0615  2E17               u371:
  2101  0616                     	goto	l881
  2102  0616  2E19               u370:
  2103  0617                     	goto	l893
  2104  0617  2E3D               	
  2105                           l879:	
  2106  0618                     	goto	l893
  2107  0618  2E3D               	
  2108                           l91:	
  2109  0619                     	line	64
  2110                           	
  2111                           l881:	
  2112  0619                     ;Touchsensor.c: 64:         if(isTouched(Tcount[i])){
  2113                           	movf	(transmitBits@i),w
  2114  0619  0873               	addlw	low(_Tcount|((0x0)<<8))&0ffh
  2115  061A  3E2C               	movwf	fsr1l
  2116  061B  0086               	clrf fsr1h	
  2117  061C  0187               	
  2118                           	movf	indf1,w
  2119  061D  0801               	fcall	_isTouched
  2120  061E  3185  259B  3186   	xorlw	low(0)&0ffh
  2121  0621  3A00               	skipnz
  2122  0622  1903               	goto	u381
  2123  0623  2E25               	goto	u380
  2124  0624  2E26               u381:
  2125  0625                     	goto	l93
  2126  0625  2E2C               u380:
  2127  0626                     	line	65
  2128                           	
  2129                           l883:	
  2130  0626                     ;Touchsensor.c: 65:             RA5 = 1;
  2131                           	movlb 0	; select bank0
  2132  0626  0020               	bsf	(101/8),(101)&7	;volatile
  2133  0627  168C               	line	66
  2134                           	
  2135                           l885:	
  2136  0628                     ;Touchsensor.c: 66:             bitDelay();
  2137                           	fcall	_bitDelay
  2138  0628  3185  2590  3186   	line	67
  2139                           ;Touchsensor.c: 67:         }
  2140                           	goto	l889
  2141  062B  2E32               	line	68
  2142                           ;Touchsensor.c: 68:         else {
  2143                           	
  2144                           l93:	
  2145  062C                     	line	69
  2146                           ;Touchsensor.c: 69:             RA5 = 0;
  2147                           	movlb 0	; select bank0
  2148  062C  0020               	bcf	(101/8),(101)&7	;volatile
  2149  062D  128C               	line	70
  2150                           	
  2151                           l887:	
  2152  062E                     ;Touchsensor.c: 70:             bitDelay();
  2153                           	fcall	_bitDelay
  2154  062E  3185  2590  3186   	goto	l889
  2155  0631  2E32               	line	71
  2156                           ;Touchsensor.c: 71:         }
  2157                           	
  2158                           l94:	
  2159  0632                     	line	72
  2160                           	
  2161                           l889:	
  2162  0632                     ;Touchsensor.c: 72:     }
  2163                           	movlw	low(01h)
  2164  0632  3001               	movwf	(??_transmitBits+0)+0
  2165  0633  00F1               	movf	(??_transmitBits+0)+0,w
  2166  0634  0871               	addwf	(transmitBits@i),f
  2167  0635  07F3               	
  2168                           l891:	
  2169  0636                     	movlw	low(04h)
  2170  0636  3004               	subwf	(transmitBits@i),w
  2171  0637  0273               	skipc
  2172  0638  1C03               	goto	u391
  2173  0639  2E3B               	goto	u390
  2174  063A  2E3C               u391:
  2175  063B                     	goto	l881
  2176  063B  2E19               u390:
  2177  063C                     	goto	l893
  2178  063C  2E3D               	
  2179                           l92:	
  2180  063D                     	line	73
  2181                           	
  2182                           l893:	
  2183  063D                     ;Touchsensor.c: 73:     for(unsigned char i = 0; i!=4; i++){
  2184                           	clrf	(transmitBits@i_74)
  2185  063D  01F2               	
  2186                           l895:	
  2187  063E                     		movlw	4
  2188  063E  3004               	xorwf	((transmitBits@i_74)),w
  2189  063F  0672               	btfss	status,2
  2190  0640  1D03               	goto	u401
  2191  0641  2E43               	goto	u400
  2192  0642  2E44               u401:
  2193  0643                     	goto	l95
  2194  0643  2E46               u400:
  2195  0644                     	goto	l96
  2196  0644  2E55               	
  2197                           l897:	
  2198  0645                     	goto	l96
  2199  0645  2E55               	
  2200                           l95:	
  2201  0646                     	line	74
  2202                           ;Touchsensor.c: 74:         RA5 = 0;
  2203                           	movlb 0	; select bank0
  2204  0646  0020               	bcf	(101/8),(101)&7	;volatile
  2205  0647  128C               	line	75
  2206                           	
  2207                           l899:	
  2208  0648                     ;Touchsensor.c: 75:         bitDelay();
  2209                           	fcall	_bitDelay
  2210  0648  3185  2590  3186   	line	76
  2211                           	
  2212                           l901:	
  2213  064B                     ;Touchsensor.c: 76:     }
  2214                           	movlw	low(01h)
  2215  064B  3001               	movwf	(??_transmitBits+0)+0
  2216  064C  00F1               	movf	(??_transmitBits+0)+0,w
  2217  064D  0871               	addwf	(transmitBits@i_74),f
  2218  064E  07F2               	
  2219                           l903:	
  2220  064F                     		movlw	4
  2221  064F  3004               	xorwf	((transmitBits@i_74)),w
  2222  0650  0672               	btfss	status,2
  2223  0651  1D03               	goto	u411
  2224  0652  2E54               	goto	u410
  2225  0653  2E55               u411:
  2226  0654                     	goto	l95
  2227  0654  2E46               u410:
  2228  0655                     	
  2229                           l96:	
  2230  0655                     	line	77
  2231                           ;Touchsensor.c: 77:     RA5 = 0;
  2232                           	movlb 0	; select bank0
  2233  0655  0020               	bcf	(101/8),(101)&7	;volatile
  2234  0656  128C               	line	78
  2235                           	
  2236                           l905:	
  2237  0657                     ;Touchsensor.c: 78:     bitDelay();
  2238                           	fcall	_bitDelay
  2239  0657  3185  2590  3186   	line	80
  2240                           	
  2241                           l97:	
  2242  065A                     	return
  2243  065A  0008               	opt stack 0
  2244                           GLOBAL	__end_of_transmitBits
  2245                           	__end_of_transmitBits:
  2246  065B                     	signat	_transmitBits,89
  2247                           	global	_isTouched
  2248                           
  2249 ;; *************** function _isTouched *****************
  2250 ;; Defined at:
  2251 ;;		line 53 in file "Touchsensor.c"
  2252 ;; Parameters:    Size  Location     Type
  2253 ;;  tcount          1    wreg     unsigned char 
  2254 ;; Auto vars:     Size  Location     Type
  2255 ;;  tcount          1    0[COMMON] unsigned char 
  2256 ;; Return value:  Size  Location     Type
  2257 ;;                  1    wreg      _Bool 
  2258 ;; Registers used:
  2259 ;;		wreg
  2260 ;; Tracked objects:
  2261 ;;		On entry : 0/0
  2262 ;;		On exit  : 0/0
  2263 ;;		Unchanged: 0/0
  2264 ;; Data sizes:     COMMON   BANK0   BANK1   BANK2
  2265 ;;      Params:         0       0       0       0
  2266 ;;      Locals:         1       0       0       0
  2267 ;;      Temps:          0       0       0       0
  2268 ;;      Totals:         1       0       0       0
  2269 ;;Total ram usage:        1 bytes
  2270 ;; Hardware stack levels used:    1
  2271 ;; This function calls:
  2272 ;;		Nothing
  2273 ;; This function is called by:
  2274 ;;		_transmitBits
  2275 ;; This function uses a non-reentrant model
  2276 ;;
  2277                           psect	text2,local,class=CODE,delta=2,merge=1,group=0
  2278                           	line	53
  2279                           global __ptext2
  2280                           __ptext2:	;psect for function _isTouched
  2281  059B                     psect	text2
  2282                           	file	"Touchsensor.c"
  2283                           	line	53
  2284                           	global	__size_of_isTouched
  2285                           	__size_of_isTouched	equ	__end_of_isTouched-_isTouched
  2286  000B                     	
  2287                           _isTouched:	
  2288  059B                     ;incstack = 0
  2289                           	opt	stack 14
  2290                           ; Regs used in _isTouched: [wreg]
  2291                           ;isTouched@tcount stored from wreg
  2292                           	movwf	(isTouched@tcount)
  2293  059B  00F0               	line	54
  2294                           	
  2295                           l857:	
  2296  059C                     ;Touchsensor.c: 54:     return (tcount < 70);
  2297                           	movlw	low(046h)
  2298  059C  3046               	subwf	(isTouched@tcount),w
  2299  059D  0270               	skipc
  2300  059E  1C03               	goto	u351
  2301  059F  2DA1               	goto	u350
  2302  05A0  2DA3               u351:
  2303  05A1                     	movlw	1
  2304  05A1  3001               	goto	u360
  2305  05A2  2DA4               u350:
  2306  05A3                     	movlw	0
  2307  05A3  3000               u360:
  2308  05A4                     	goto	l88
  2309  05A4  2DA5               	
  2310                           l859:	
  2311  05A5                     	line	55
  2312                           	
  2313                           l88:	
  2314  05A5                     	return
  2315  05A5  0008               	opt stack 0
  2316                           GLOBAL	__end_of_isTouched
  2317                           	__end_of_isTouched:
  2318  05A6                     	signat	_isTouched,4217
  2319                           	global	_bitDelay
  2320                           
  2321 ;; *************** function _bitDelay *****************
  2322 ;; Defined at:
  2323 ;;		line 50 in file "Touchsensor.c"
  2324 ;; Parameters:    Size  Location     Type
  2325 ;;		None
  2326 ;; Auto vars:     Size  Location     Type
  2327 ;;		None
  2328 ;; Return value:  Size  Location     Type
  2329 ;;                  1    wreg      void 
  2330 ;; Registers used:
  2331 ;;		wreg
  2332 ;; Tracked objects:
  2333 ;;		On entry : 0/0
  2334 ;;		On exit  : 0/0
  2335 ;;		Unchanged: 0/0
  2336 ;; Data sizes:     COMMON   BANK0   BANK1   BANK2
  2337 ;;      Params:         0       0       0       0
  2338 ;;      Locals:         0       0       0       0
  2339 ;;      Temps:          0       0       0       0
  2340 ;;      Totals:         0       0       0       0
  2341 ;;Total ram usage:        0 bytes
  2342 ;; Hardware stack levels used:    1
  2343 ;; This function calls:
  2344 ;;		Nothing
  2345 ;; This function is called by:
  2346 ;;		_transmitBits
  2347 ;; This function uses a non-reentrant model
  2348 ;;
  2349                           psect	text3,local,class=CODE,delta=2,merge=1,group=0
  2350                           	line	50
  2351                           global __ptext3
  2352                           __ptext3:	;psect for function _bitDelay
  2353  0590                     psect	text3
  2354                           	file	"Touchsensor.c"
  2355                           	line	50
  2356                           	global	__size_of_bitDelay
  2357                           	__size_of_bitDelay	equ	__end_of_bitDelay-_bitDelay
  2358  0005                     	
  2359                           _bitDelay:	
  2360  0590                     ;incstack = 0
  2361                           	opt	stack 14
  2362                           ; Regs used in _bitDelay: [wreg]
  2363                           	line	51
  2364                           	
  2365                           l855:	
  2366  0590                     ;Touchsensor.c: 51:     _delay((unsigned long)((56)*(4000000/4000000.0)));
  2367                           	opt asmopt_push
  2368                           opt asmopt_off
  2369                           	movlw	18
  2370  0590  3012               u707:
  2371  0591                     decfsz	wreg
  2372  0591  0B89               	goto	u707
  2373  0592  2D91               	nop2
  2374  0593  3200               opt asmopt_pop
  2375                           
  2376                           	line	52
  2377                           	
  2378                           l85:	
  2379  0594                     	return
  2380  0594  0008               	opt stack 0
  2381                           GLOBAL	__end_of_bitDelay
  2382                           	__end_of_bitDelay:
  2383  0595                     	signat	_bitDelay,89
  2384                           	global	_initTouch
  2385                           
  2386 ;; *************** function _initTouch *****************
  2387 ;; Defined at:
  2388 ;;		line 85 in file "Touchsensor.c"
  2389 ;; Parameters:    Size  Location     Type
  2390 ;;		None
  2391 ;; Auto vars:     Size  Location     Type
  2392 ;;  c               1    3[COMMON] unsigned char 
  2393 ;;  i               1    4[COMMON] unsigned char 
  2394 ;; Return value:  Size  Location     Type
  2395 ;;                  1    wreg      void 
  2396 ;; Registers used:
  2397 ;;		wreg, fsr1l, fsr1h, status,2, status,0
  2398 ;; Tracked objects:
  2399 ;;		On entry : 0/0
  2400 ;;		On exit  : 0/0
  2401 ;;		Unchanged: 0/0
  2402 ;; Data sizes:     COMMON   BANK0   BANK1   BANK2
  2403 ;;      Params:         0       0       0       0
  2404 ;;      Locals:         2       0       0       0
  2405 ;;      Temps:          3       0       0       0
  2406 ;;      Totals:         5       0       0       0
  2407 ;;Total ram usage:        5 bytes
  2408 ;; Hardware stack levels used:    1
  2409 ;; This function calls:
  2410 ;;		Nothing
  2411 ;; This function is called by:
  2412 ;;		_main
  2413 ;; This function uses a non-reentrant model
  2414 ;;
  2415                           psect	text4,local,class=CODE,delta=2,merge=1,group=0
  2416                           	line	85
  2417                           global __ptext4
  2418                           __ptext4:	;psect for function _initTouch
  2419  05C0                     psect	text4
  2420                           	file	"Touchsensor.c"
  2421                           	line	85
  2422                           	global	__size_of_initTouch
  2423                           	__size_of_initTouch	equ	__end_of_initTouch-_initTouch
  2424  004B                     	
  2425                           _initTouch:	
  2426  05C0                     ;incstack = 0
  2427                           	opt	stack 15
  2428                           ; Regs used in _initTouch: [wreg+fsr1l+fsr1h+status,2+status,0]
  2429                           	line	87
  2430                           	
  2431                           l907:	
  2432  05C0                     ;Touchsensor.c: 87:  for(unsigned char i = 0; i != 4; i++)
  2433                           	clrf	(initTouch@i)
  2434  05C0  01F4               	
  2435                           l909:	
  2436  05C1                     		movlw	4
  2437  05C1  3004               	xorwf	((initTouch@i)),w
  2438  05C2  0674               	btfss	status,2
  2439  05C3  1D03               	goto	u421
  2440  05C4  2DC6               	goto	u420
  2441  05C5  2DC7               u421:
  2442  05C6                     	goto	l913
  2443  05C6  2DC9               u420:
  2444  05C7                     	goto	l104
  2445  05C7  2E0A               	
  2446                           l911:	
  2447  05C8                     	goto	l104
  2448  05C8  2E0A               	
  2449                           l100:	
  2450  05C9                     	line	89
  2451                           	
  2452                           l913:	
  2453  05C9                     ;Touchsensor.c: 88:  {;Touchsensor.c: 89:   CPSCON1 = i;
  2454                           	movf	(initTouch@i),w
  2455  05C9  0874               	movlb 0	; select bank0
  2456  05CA  0020               	movwf	(31)	;volatile
  2457  05CB  009F               	line	90
  2458                           	
  2459                           l915:	
  2460  05CC                     ;Touchsensor.c: 90:   Ttemp = 0;
  2461                           	clrf	(_Ttemp)
  2462  05CC  01B0               	clrf	(_Ttemp+1)
  2463  05CD  01B1               	line	91
  2464                           	
  2465                           l917:	
  2466  05CE                     ;Touchsensor.c: 91:   for(unsigned char c = 16; c != 0; c--)
  2467                           	movlw	low(010h)
  2468  05CE  3010               	movwf	(??_initTouch+0)+0
  2469  05CF  00F0               	movf	(??_initTouch+0)+0,w
  2470  05D0  0870               	movwf	(initTouch@c)
  2471  05D1  00F3               	
  2472                           l919:	
  2473  05D2                     	movf	((initTouch@c)),w
  2474  05D2  0873               	btfss	status,2
  2475  05D3  1D03               	goto	u431
  2476  05D4  2DD6               	goto	u430
  2477  05D5  2DD7               u431:
  2478  05D6                     	goto	l923
  2479  05D6  2DD9               u430:
  2480  05D7                     	goto	l933
  2481  05D7  2DEE               	
  2482                           l921:	
  2483  05D8                     	goto	l933
  2484  05D8  2DEE               	
  2485                           l102:	
  2486  05D9                     	line	93
  2487                           	
  2488                           l923:	
  2489  05D9                     ;Touchsensor.c: 92:   {;Touchsensor.c: 93:    TMR0 = 0;
  2490                           	clrf	(21)	;volatile
  2491  05D9  0195               	line	94
  2492                           	
  2493                           l925:	
  2494  05DA                     ;Touchsensor.c: 94:    _delay((unsigned long)((1)*(4000000/4000.0)));
  2495                           	opt asmopt_push
  2496                           opt asmopt_off
  2497                           	movlw	200
  2498  05DA  30C8               u717:
  2499  05DB                     	nop2
  2500  05DB  3200               decfsz	wreg
  2501  05DC  0B89               	goto	u717
  2502  05DD  2DDB               opt asmopt_pop
  2503                           
  2504                           	line	95
  2505                           	
  2506                           l927:	
  2507  05DE                     ;Touchsensor.c: 95:    Ttemp += TMR0;
  2508                           	movlb 0	; select bank0
  2509  05DE  0020               	movf	(21),w	;volatile
  2510  05DF  0815               	movwf	(??_initTouch+0)+0
  2511  05E0  00F0               	clrf	(??_initTouch+0)+0+1
  2512  05E1  01F1               	movf	0+(??_initTouch+0)+0,w
  2513  05E2  0870               	addwf	(_Ttemp),f
  2514  05E3  07B0               	movf	1+(??_initTouch+0)+0,w
  2515  05E4  0871               	addwfc	(_Ttemp+1),f
  2516  05E5  3DB1               	line	96
  2517                           	
  2518                           l929:	
  2519  05E6                     ;Touchsensor.c: 96:   }
  2520                           	movlw	01h
  2521  05E6  3001               	subwf	(initTouch@c),f
  2522  05E7  02F3               	
  2523                           l931:	
  2524  05E8                     	movf	((initTouch@c)),w
  2525  05E8  0873               	btfss	status,2
  2526  05E9  1D03               	goto	u441
  2527  05EA  2DEC               	goto	u440
  2528  05EB  2DED               u441:
  2529  05EC                     	goto	l923
  2530  05EC  2DD9               u440:
  2531  05ED                     	goto	l933
  2532  05ED  2DEE               	
  2533                           l103:	
  2534  05EE                     	line	97
  2535                           	
  2536                           l933:	
  2537  05EE                     ;Touchsensor.c: 97:   Tavg[i] = Ttemp / 16;
  2538                           	movf	(_Ttemp+1),w
  2539  05EE  0831               	movwf	(??_initTouch+0)+0+1
  2540  05EF  00F1               	movf	(_Ttemp),w
  2541  05F0  0830               	movwf	(??_initTouch+0)+0
  2542  05F1  00F0               	movlw	04h
  2543  05F2  3004               u455:
  2544  05F3                     	lsrf	(??_initTouch+0)+1,f
  2545  05F3  36F1               	rrf	(??_initTouch+0)+0,f
  2546  05F4  0CF0               	decfsz	wreg,f
  2547  05F5  0B89               	goto	u455
  2548  05F6  2DF3               	movf	0+(??_initTouch+0)+0,w
  2549  05F7  0870               	movwf	(??_initTouch+2)+0
  2550  05F8  00F2               	movf	(initTouch@i),w
  2551  05F9  0874               	addlw	low(_Tavg|((0x0)<<8))&0ffh
  2552  05FA  3E28               	movwf	fsr1l
  2553  05FB  0086               	clrf fsr1h	
  2554  05FC  0187               	
  2555                           	movf	(??_initTouch+2)+0,w
  2556  05FD  0872               	movwf	indf1
  2557  05FE  0081               	line	98
  2558                           	
  2559                           l935:	
  2560  05FF                     ;Touchsensor.c: 98:  }
  2561                           	movlw	low(01h)
  2562  05FF  3001               	movwf	(??_initTouch+0)+0
  2563  0600  00F0               	movf	(??_initTouch+0)+0,w
  2564  0601  0870               	addwf	(initTouch@i),f
  2565  0602  07F4               	
  2566                           l937:	
  2567  0603                     		movlw	4
  2568  0603  3004               	xorwf	((initTouch@i)),w
  2569  0604  0674               	btfss	status,2
  2570  0605  1D03               	goto	u461
  2571  0606  2E08               	goto	u460
  2572  0607  2E09               u461:
  2573  0608                     	goto	l913
  2574  0608  2DC9               u460:
  2575  0609                     	goto	l104
  2576  0609  2E0A               	
  2577                           l101:	
  2578  060A                     	line	99
  2579                           	
  2580                           l104:	
  2581  060A                     	return
  2582  060A  0008               	opt stack 0
  2583                           GLOBAL	__end_of_initTouch
  2584                           	__end_of_initTouch:
  2585  060B                     	signat	_initTouch,89
  2586                           	global	_init
  2587                           
  2588 ;; *************** function _init *****************
  2589 ;; Defined at:
  2590 ;;		line 12 in file "RAINBO-TX.c"
  2591 ;; Parameters:    Size  Location     Type
  2592 ;;		None
  2593 ;; Auto vars:     Size  Location     Type
  2594 ;;		None
  2595 ;; Return value:  Size  Location     Type
  2596 ;;                  1    wreg      void 
  2597 ;; Registers used:
  2598 ;;		wreg, status,2
  2599 ;; Tracked objects:
  2600 ;;		On entry : 0/0
  2601 ;;		On exit  : 0/0
  2602 ;;		Unchanged: 0/0
  2603 ;; Data sizes:     COMMON   BANK0   BANK1   BANK2
  2604 ;;      Params:         0       0       0       0
  2605 ;;      Locals:         0       0       0       0
  2606 ;;      Temps:          0       0       0       0
  2607 ;;      Totals:         0       0       0       0
  2608 ;;Total ram usage:        0 bytes
  2609 ;; Hardware stack levels used:    1
  2610 ;; This function calls:
  2611 ;;		Nothing
  2612 ;; This function is called by:
  2613 ;;		_main
  2614 ;; This function uses a non-reentrant model
  2615 ;;
  2616                           psect	text5,local,class=CODE,delta=2,merge=1,group=0
  2617                           	file	"RAINBO-TX.c"
  2618                           	line	12
  2619                           global __ptext5
  2620                           __ptext5:	;psect for function _init
  2621  05A6                     psect	text5
  2622                           	file	"RAINBO-TX.c"
  2623                           	line	12
  2624                           	global	__size_of_init
  2625                           	__size_of_init	equ	__end_of_init-_init
  2626  001A                     	
  2627                           _init:	
  2628  05A6                     ;incstack = 0
  2629                           	opt	stack 15
  2630                           ; Regs used in _init: [wreg+status,2]
  2631                           	line	16
  2632                           	
  2633                           l861:	
  2634  05A6                     ;RAINBO-TX.c: 16:  OSCCON = 0b01101000;
  2635                           	movlw	low(068h)
  2636  05A6  3068               	movlb 1	; select bank1
  2637  05A7  0021               	movwf	(153)^080h	;volatile
  2638  05A8  0099               	line	20
  2639                           ;RAINBO-TX.c: 20:  OPTION_REG = 0b00101000;
  2640                           	movlw	low(028h)
  2641  05A9  3028               	movwf	(149)^080h	;volatile
  2642  05AA  0095               	line	22
  2643                           ;RAINBO-TX.c: 22:  WPUA = 0b00001000;
  2644                           	movlw	low(08h)
  2645  05AB  3008               	movlb 4	; select bank4
  2646  05AC  0024               	movwf	(524)^0200h	;volatile
  2647  05AD  008C               	line	23
  2648                           	
  2649                           l863:	
  2650  05AE                     ;RAINBO-TX.c: 23:  PORTA = 0;
  2651                           	movlb 0	; select bank0
  2652  05AE  0020               	clrf	(12)	;volatile
  2653  05AF  018C               	line	24
  2654                           	
  2655                           l865:	
  2656  05B0                     ;RAINBO-TX.c: 24:  LATA = 0;
  2657                           	movlb 2	; select bank2
  2658  05B0  0022               	clrf	(268)^0100h	;volatile
  2659  05B1  018C               	line	25
  2660                           ;RAINBO-TX.c: 25:  ANSELA = 0b00010111;
  2661                           	movlw	low(017h)
  2662  05B2  3017               	movlb 3	; select bank3
  2663  05B3  0023               	movwf	(396)^0180h	;volatile
  2664  05B4  008C               	line	26
  2665                           ;RAINBO-TX.c: 26:  TRISA = 0b00011111;
  2666                           	movlw	low(01Fh)
  2667  05B5  301F               	movlb 1	; select bank1
  2668  05B6  0021               	movwf	(140)^080h	;volatile
  2669  05B7  008C               	line	28
  2670                           ;RAINBO-TX.c: 28:  CPSCON0 = 0b10001001;
  2671                           	movlw	low(089h)
  2672  05B8  3089               	movlb 0	; select bank0
  2673  05B9  0020               	movwf	(30)	;volatile
  2674  05BA  009E               	line	29
  2675                           	
  2676                           l867:	
  2677  05BB                     ;RAINBO-TX.c: 29:  CPSCON1 = 0;
  2678                           	clrf	(31)	;volatile
  2679  05BB  019F               	line	31
  2680                           	
  2681                           l869:	
  2682  05BC                     ;RAINBO-TX.c: 31:  WDTCON = 0b00001010;
  2683                           	movlw	low(0Ah)
  2684  05BC  300A               	movlb 1	; select bank1
  2685  05BD  0021               	movwf	(151)^080h	;volatile
  2686  05BE  0097               	line	36
  2687                           	
  2688                           l31:	
  2689  05BF                     	return
  2690  05BF  0008               	opt stack 0
  2691                           GLOBAL	__end_of_init
  2692                           	__end_of_init:
  2693  05C0                     	signat	_init,89
  2694                           	global	___awdiv
  2695                           
  2696 ;; *************** function ___awdiv *****************
  2697 ;; Defined at:
  2698 ;;		line 5 in file "C:\Program Files\Microchip\xc8\v2.00\pic\sources\c99\common\awdiv.c"
  2699 ;; Parameters:    Size  Location     Type
  2700 ;;  divisor         2    0[COMMON] int 
  2701 ;;  dividend        2    2[COMMON] int 
  2702 ;; Auto vars:     Size  Location     Type
  2703 ;;  quotient        2    7[COMMON] int 
  2704 ;;  sign            1    6[COMMON] unsigned char 
  2705 ;;  counter         1    5[COMMON] unsigned char 
  2706 ;; Return value:  Size  Location     Type
  2707 ;;                  2    0[COMMON] int 
  2708 ;; Registers used:
  2709 ;;		wreg, status,2, status,0
  2710 ;; Tracked objects:
  2711 ;;		On entry : 0/0
  2712 ;;		On exit  : 0/0
  2713 ;;		Unchanged: 0/0
  2714 ;; Data sizes:     COMMON   BANK0   BANK1   BANK2
  2715 ;;      Params:         4       0       0       0
  2716 ;;      Locals:         4       0       0       0
  2717 ;;      Temps:          1       0       0       0
  2718 ;;      Totals:         9       0       0       0
  2719 ;;Total ram usage:        9 bytes
  2720 ;; Hardware stack levels used:    1
  2721 ;; This function calls:
  2722 ;;		Nothing
  2723 ;; This function is called by:
  2724 ;;		_main
  2725 ;; This function uses a non-reentrant model
  2726 ;;
  2727                           psect	text6,local,class=CODE,delta=2,merge=1,group=1
  2728                           	file	"C:\Program Files\Microchip\xc8\v2.00\pic\sources\c99\common\awdiv.c"
  2729                           	line	5
  2730                           global __ptext6
  2731                           __ptext6:	;psect for function ___awdiv
  2732  065B                     psect	text6
  2733                           	file	"C:\Program Files\Microchip\xc8\v2.00\pic\sources\c99\common\awdiv.c"
  2734                           	line	5
  2735                           	global	__size_of___awdiv
  2736                           	__size_of___awdiv	equ	__end_of___awdiv-___awdiv
  2737  0069                     	
  2738                           ___awdiv:	
  2739  065B                     ;incstack = 0
  2740                           	opt	stack 15
  2741                           ; Regs used in ___awdiv: [wreg+status,2+status,0]
  2742                           	line	13
  2743                           	
  2744                           l939:	
  2745  065B                     	clrf	(___awdiv@sign)
  2746  065B  01F6               	line	14
  2747                           	
  2748                           l941:	
  2749  065C                     	btfss	(___awdiv@divisor+1),7
  2750  065C  1FF1               	goto	u471
  2751  065D  2E5F               	goto	u470
  2752  065E  2E60               u471:
  2753  065F                     	goto	l947
  2754  065F  2E68               u470:
  2755  0660                     	line	15
  2756                           	
  2757                           l943:	
  2758  0660                     	comf	(___awdiv@divisor),f
  2759  0660  09F0               	comf	(___awdiv@divisor+1),f
  2760  0661  09F1               	incf	(___awdiv@divisor),f
  2761  0662  0AF0               	skipnz
  2762  0663  1903               	incf	(___awdiv@divisor+1),f
  2763  0664  0AF1               	line	16
  2764                           	
  2765                           l945:	
  2766  0665                     	clrf	(___awdiv@sign)
  2767  0665  01F6               	incf	(___awdiv@sign),f
  2768  0666  0AF6               	goto	l947
  2769  0667  2E68               	line	17
  2770                           	
  2771                           l351:	
  2772  0668                     	line	18
  2773                           	
  2774                           l947:	
  2775  0668                     	btfss	(___awdiv@dividend+1),7
  2776  0668  1FF3               	goto	u481
  2777  0669  2E6B               	goto	u480
  2778  066A  2E6C               u481:
  2779  066B                     	goto	l953
  2780  066B  2E76               u480:
  2781  066C                     	line	19
  2782                           	
  2783                           l949:	
  2784  066C                     	comf	(___awdiv@dividend),f
  2785  066C  09F2               	comf	(___awdiv@dividend+1),f
  2786  066D  09F3               	incf	(___awdiv@dividend),f
  2787  066E  0AF2               	skipnz
  2788  066F  1903               	incf	(___awdiv@dividend+1),f
  2789  0670  0AF3               	line	20
  2790                           	
  2791                           l951:	
  2792  0671                     	movlw	low(01h)
  2793  0671  3001               	movwf	(??___awdiv+0)+0
  2794  0672  00F4               	movf	(??___awdiv+0)+0,w
  2795  0673  0874               	xorwf	(___awdiv@sign),f
  2796  0674  06F6               	goto	l953
  2797  0675  2E76               	line	21
  2798                           	
  2799                           l352:	
  2800  0676                     	line	22
  2801                           	
  2802                           l953:	
  2803  0676                     	clrf	(___awdiv@quotient)
  2804  0676  01F7               	clrf	(___awdiv@quotient+1)
  2805  0677  01F8               	line	23
  2806                           	
  2807                           l955:	
  2808  0678                     	movf	((___awdiv@divisor)),w
  2809  0678  0870               iorwf	((___awdiv@divisor+1)),w
  2810  0679  0471               	btfsc	status,2
  2811  067A  1903               	goto	u491
  2812  067B  2E7D               	goto	u490
  2813  067C  2E7E               u491:
  2814  067D                     	goto	l975
  2815  067D  2EB3               u490:
  2816  067E                     	line	24
  2817                           	
  2818                           l957:	
  2819  067E                     	clrf	(___awdiv@counter)
  2820  067E  01F5               	incf	(___awdiv@counter),f
  2821  067F  0AF5               	line	25
  2822                           	goto	l963
  2823  0680  2E8B               	
  2824                           l355:	
  2825  0681                     	line	26
  2826                           	
  2827                           l959:	
  2828  0681                     	movlw	01h
  2829  0681  3001               	
  2830                           u505:
  2831  0682                     	lslf	(___awdiv@divisor),f
  2832  0682  35F0               	rlf	(___awdiv@divisor+1),f
  2833  0683  0DF1               	decfsz	wreg,f
  2834  0684  0B89               	goto	u505
  2835  0685  2E82               	line	27
  2836                           	
  2837                           l961:	
  2838  0686                     	movlw	low(01h)
  2839  0686  3001               	movwf	(??___awdiv+0)+0
  2840  0687  00F4               	movf	(??___awdiv+0)+0,w
  2841  0688  0874               	addwf	(___awdiv@counter),f
  2842  0689  07F5               	goto	l963
  2843  068A  2E8B               	line	28
  2844                           	
  2845                           l354:	
  2846  068B                     	line	25
  2847                           	
  2848                           l963:	
  2849  068B                     	btfss	(___awdiv@divisor+1),(15)&7
  2850  068B  1FF1               	goto	u511
  2851  068C  2E8E               	goto	u510
  2852  068D  2E8F               u511:
  2853  068E                     	goto	l959
  2854  068E  2E81               u510:
  2855  068F                     	goto	l965
  2856  068F  2E91               	
  2857                           l356:	
  2858  0690                     	goto	l965
  2859  0690  2E91               	line	29
  2860                           	
  2861                           l357:	
  2862  0691                     	line	30
  2863                           	
  2864                           l965:	
  2865  0691                     	movlw	01h
  2866  0691  3001               	
  2867                           u525:
  2868  0692                     	lslf	(___awdiv@quotient),f
  2869  0692  35F7               	rlf	(___awdiv@quotient+1),f
  2870  0693  0DF8               	decfsz	wreg,f
  2871  0694  0B89               	goto	u525
  2872  0695  2E92               	line	31
  2873                           	movf	(___awdiv@divisor+1),w
  2874  0696  0871               	subwf	(___awdiv@dividend+1),w
  2875  0697  0273               	skipz
  2876  0698  1D03               	goto	u535
  2877  0699  2E9C               	movf	(___awdiv@divisor),w
  2878  069A  0870               	subwf	(___awdiv@dividend),w
  2879  069B  0272               u535:
  2880  069C                     	skipc
  2881  069C  1C03               	goto	u531
  2882  069D  2E9F               	goto	u530
  2883  069E  2EA0               u531:
  2884  069F                     	goto	l971
  2885  069F  2EA6               u530:
  2886  06A0                     	line	32
  2887                           	
  2888                           l967:	
  2889  06A0                     	movf	(___awdiv@divisor),w
  2890  06A0  0870               	subwf	(___awdiv@dividend),f
  2891  06A1  02F2               	movf	(___awdiv@divisor+1),w
  2892  06A2  0871               	subwfb	(___awdiv@dividend+1),f
  2893  06A3  3BF3               	line	33
  2894                           	
  2895                           l969:	
  2896  06A4                     	bsf	(___awdiv@quotient)+(0/8),(0)&7
  2897  06A4  1477               	goto	l971
  2898  06A5  2EA6               	line	34
  2899                           	
  2900                           l358:	
  2901  06A6                     	line	35
  2902                           	
  2903                           l971:	
  2904  06A6                     	movlw	01h
  2905  06A6  3001               	
  2906                           u545:
  2907  06A7                     	lsrf	(___awdiv@divisor+1),f
  2908  06A7  36F1               	rrf	(___awdiv@divisor),f
  2909  06A8  0CF0               	decfsz	wreg,f
  2910  06A9  0B89               	goto	u545
  2911  06AA  2EA7               	line	36
  2912                           	
  2913                           l973:	
  2914  06AB                     	movlw	01h
  2915  06AB  3001               	subwf	(___awdiv@counter),f
  2916  06AC  02F5               	btfss	status,2
  2917  06AD  1D03               	goto	u551
  2918  06AE  2EB0               	goto	u550
  2919  06AF  2EB1               u551:
  2920  06B0                     	goto	l965
  2921  06B0  2E91               u550:
  2922  06B1                     	goto	l975
  2923  06B1  2EB3               	
  2924                           l359:	
  2925  06B2                     	goto	l975
  2926  06B2  2EB3               	line	37
  2927                           	
  2928                           l353:	
  2929  06B3                     	line	38
  2930                           	
  2931                           l975:	
  2932  06B3                     	movf	((___awdiv@sign)),w
  2933  06B3  0876               	btfsc	status,2
  2934  06B4  1903               	goto	u561
  2935  06B5  2EB7               	goto	u560
  2936  06B6  2EB8               u561:
  2937  06B7                     	goto	l979
  2938  06B7  2EBE               u560:
  2939  06B8                     	line	39
  2940                           	
  2941                           l977:	
  2942  06B8                     	comf	(___awdiv@quotient),f
  2943  06B8  09F7               	comf	(___awdiv@quotient+1),f
  2944  06B9  09F8               	incf	(___awdiv@quotient),f
  2945  06BA  0AF7               	skipnz
  2946  06BB  1903               	incf	(___awdiv@quotient+1),f
  2947  06BC  0AF8               	goto	l979
  2948  06BD  2EBE               	
  2949                           l360:	
  2950  06BE                     	line	40
  2951                           	
  2952                           l979:	
  2953  06BE                     	movf	(___awdiv@quotient+1),w
  2954  06BE  0878               	movwf	(?___awdiv+1)
  2955  06BF  00F1               	movf	(___awdiv@quotient),w
  2956  06C0  0877               	movwf	(?___awdiv)
  2957  06C1  00F0               	goto	l361
  2958  06C2  2EC3               	
  2959                           l981:	
  2960  06C3                     	line	41
  2961                           	
  2962                           l361:	
  2963  06C3                     	return
  2964  06C3  0008               	opt stack 0
  2965                           GLOBAL	__end_of___awdiv
  2966                           	__end_of___awdiv:
  2967  06C4                     	signat	___awdiv,8314
  2968                           global	___latbits
  2969                           ___latbits	equ	1
  2970  0001                     	global	btemp
  2971                           	btemp set 07Eh
  2972  007E                     
  2973                           	DABS	1,126,2	;btemp
  2974                           	global	wtemp0
  2975                           	wtemp0 set btemp+0
  2976  007E                     	end


Data Sizes:
    Strings     0
    Constant    3
    Data        3
    BSS         23
    Persistent  0
    Stack       0

Auto Spaces:
    Space          Size  Autos    Used
    COMMON           14     10      14
    BANK0            80      7      29
    BANK1            80      0       0
    BANK2            80      0       0

Pointer List with Targets:

    None.

Critical Paths under _main in COMMON

    _main->___awdiv
    _transmitBits->_isTouched

Critical Paths under _main in BANK0

    None.

Critical Paths under _main in BANK1

    None.

Critical Paths under _main in BANK2

    None.

Call Graph Tables:

 ---------------------------------------------------------------------------------
 (Depth) Function   	        Calls       Base Space   Used Autos Params    Refs
 ---------------------------------------------------------------------------------
 (0) _main                                                 8     8      0    1470
                                              9 COMMON     1     1      0
                                              0 BANK0      7     7      0
                            ___awdiv
                               _init
                          _initTouch
                       _transmitBits
 ---------------------------------------------------------------------------------
 (1) _transmitBits                                         3     3      0     136
                                              1 COMMON     3     3      0
                           _bitDelay
                          _isTouched
 ---------------------------------------------------------------------------------
 (2) _isTouched                                            1     1      0      22
                                              0 COMMON     1     1      0
 ---------------------------------------------------------------------------------
 (2) _bitDelay                                             0     0      0       0
 ---------------------------------------------------------------------------------
 (1) _initTouch                                            5     5      0     136
                                              0 COMMON     5     5      0
 ---------------------------------------------------------------------------------
 (1) _init                                                 0     0      0       0
 ---------------------------------------------------------------------------------
 (1) ___awdiv                                              9     5      4     756
                                              0 COMMON     9     5      4
 ---------------------------------------------------------------------------------
 Estimated maximum stack depth 2
 ---------------------------------------------------------------------------------

 Call Graph Graphs:

 _main (ROOT)
   ___awdiv
   _init
   _initTouch
   _transmitBits
     _bitDelay
     _isTouched

 Address spaces:
Name               Size   Autos  Total    Cost      Usage
BIGRAM              F0      0       0       0        0.0%
EEDATA             100      0       0       0        0.0%
NULL                 0      0       0       0        0.0%
CODE                 0      0       0       0        0.0%
BITCOMMON            E      0       0       1        0.0%
BITSFR0              0      0       0       1        0.0%
SFR0                 0      0       0       1        0.0%
COMMON               E      A       E       2      100.0%
BITSFR1              0      0       0       2        0.0%
SFR1                 0      0       0       2        0.0%
BITSFR2              0      0       0       3        0.0%
SFR2                 0      0       0       3        0.0%
STACK                0      0       0       3        0.0%
BITSFR3              0      0       0       4        0.0%
SFR3                 0      0       0       4        0.0%
ABS                  0      0      2B       4        0.0%
BITBANK0            50      0       0       5        0.0%
BITSFR4              0      0       0       5        0.0%
SFR4                 0      0       0       5        0.0%
BANK0               50      7      1D       6       36.3%
BITSFR5              0      0       0       6        0.0%
SFR5                 0      0       0       6        0.0%
BITBANK1            50      0       0       7        0.0%
BITSFR6              0      0       0       7        0.0%
SFR6                 0      0       0       7        0.0%
BANK1               50      0       0       8        0.0%
BITSFR7              0      0       0       8        0.0%
SFR7                 0      0       0       8        0.0%
BITBANK2            50      0       0       9        0.0%
BITSFR8              0      0       0       9        0.0%
SFR8                 0      0       0       9        0.0%
BANK2               50      0       0      10        0.0%
BITSFR9              0      0       0      10        0.0%
SFR9                 0      0       0      10        0.0%
BITSFR10             0      0       0      11        0.0%
SFR10                0      0       0      11        0.0%
DATA                 0      0      2B      11        0.0%
BITSFR11             0      0       0      12        0.0%
SFR11                0      0       0      12        0.0%
BITSFR12             0      0       0      13        0.0%
SFR12                0      0       0      13        0.0%
BITSFR13             0      0       0      14        0.0%
SFR13                0      0       0      14        0.0%
BITSFR14             0      0       0      15        0.0%
SFR14                0      0       0      15        0.0%
BITSFR15             0      0       0      16        0.0%
SFR15                0      0       0      16        0.0%
BITSFR16             0      0       0      17        0.0%
SFR16                0      0       0      17        0.0%
BITSFR17             0      0       0      18        0.0%
SFR17                0      0       0      18        0.0%
BITSFR18             0      0       0      19        0.0%
SFR18                0      0       0      19        0.0%
BITSFR19             0      0       0      20        0.0%
SFR19                0      0       0      20        0.0%
BITSFR20             0      0       0      21        0.0%
SFR20                0      0       0      21        0.0%
BITSFR21             0      0       0      22        0.0%
SFR21                0      0       0      22        0.0%
BITSFR22             0      0       0      23        0.0%
SFR22                0      0       0      23        0.0%
BITSFR23             0      0       0      24        0.0%
SFR23                0      0       0      24        0.0%
BITSFR24             0      0       0      25        0.0%
SFR24                0      0       0      25        0.0%
BITSFR25             0      0       0      26        0.0%
SFR25                0      0       0      26        0.0%
BITSFR26             0      0       0      27        0.0%
SFR26                0      0       0      27        0.0%
BITSFR27             0      0       0      28        0.0%
SFR27                0      0       0      28        0.0%
BITSFR28             0      0       0      29        0.0%
SFR28                0      0       0      29        0.0%
BITSFR29             0      0       0      30        0.0%
SFR29                0      0       0      30        0.0%
BITSFR30             0      0       0      31        0.0%
SFR30                0      0       0      31        0.0%
BITSFR31             0      0       0      32        0.0%
SFR31                0      0       0      32        0.0%


Microchip Technology PIC Macro Assembler V2.00 build -1524193055 
Symbol Table                                                                                   Fri Jan 25 14:55:28 2019

            __CFG_CP$OFF 0000                       l31 05BF                       l91 0619  
                     l92 063D                       l85 0594                       l93 062C  
                     _T1 007C                       l94 0632                       _T2 007D  
                     l95 0646                       _T3 003C                       l88 05A5  
                     l96 0655                       _T4 003B                       l97 065A  
           ___awdiv@sign 0076                       _up 0802                      l100 05C9  
                    l101 060A                      l102 05D9                      l110 06D9  
                    l103 05EE                      l111 07A6                      l104 060A  
                    l120 07E3                      l112 074D                      l121 07E4  
                    l113 079B                      l122 07E4                      l114 07AD  
                    l115 07D8                      l116 07C8                      l117 07C7  
                    l109 06CD                      l118 07D8                      l119 07D7  
                    l351 0668                      l360 06BE                      l352 0676  
                    l361 06C3                      l353 06B3                      l354 068B  
                    l355 0681                      l356 0690                      l357 0691  
                    l358 06A6                      l359 06B2                      l901 064B  
                    l911 05C8                      l903 064F                      l921 05D8  
                    l913 05C9                      l905 0657                      l931 05E8  
                    l923 05D9                      l915 05CC                      l907 05C0  
                    l941 065C                      l861 05A6                      l925 05DA  
                    l933 05EE                      l917 05CE                      l909 05C1  
                    l951 0671                      l943 0660                      l863 05AE  
                    l935 05FF                      l927 05DE                      l919 05D2  
                    l855 0590                      l871 060B                      l961 0686  
                    l953 0676                      l945 0665                      l865 05B0  
                    l937 0603                      l929 05E6                      l857 059C  
                    l881 0619                      l873 060D                      l971 06A6  
                    l963 068B                      l955 0678                      l947 0668  
                    l939 065B                      l867 05BB                      l859 05A5  
                    l891 0636                      l883 0626                      l875 0610  
                    l981 06C3                      l973 06AB                      l965 0691  
                    l957 067E                      l949 066C                      l869 05BC  
                    l885 0628                      l893 063D                      l877 0611  
                    l967 06A0                      l959 0681                      l975 06B3  
                    l895 063E                      l887 062E                      l879 0618  
                    l977 06B8                      l969 06A4                      l897 0645  
                    l889 0632                      l979 06BE                      l899 0648  
                    _RA5 0065                      u400 0644                      u401 0643  
                    u410 0655                      u411 0654                      u420 05C7  
                    u421 05C6                      u510 068F                      u430 05D7  
                    u350 05A3                      u511 068E                      u431 05D6  
                    u351 05A1                      u440 05ED                      u360 05A4  
                    u505 0682                      u441 05EC                      u530 06A0  
                    u370 0617                      u610 06D7             __CFG_CPD$OFF 0000  
                    u531 069F                      u371 0616                      u611 06D6  
                    u460 0609                      u380 0626                      u620 0730  
                    u525 0692                      u461 0608                      u381 0625  
                    u621 072F                      u550 06B1                      u470 0660  
                    u390 063C                      u630 07A5                      u551 06B0  
                    u535 069C                      u471 065F                      u455 05F3  
                    u391 063B                      u631 07A4                      u560 06B8  
                    u480 066C                      u640 07AB                      u561 06B7  
                    u545 06A7                      u481 066B                      u641 07AA  
                    u625 072C                      u490 067E                      u650 07B3  
                    u491 067D                      u707 0591                      u651 07B2  
                    u660 07BA                      u717 05DB                      u661 07B9  
                    u670 07C4                      u671 07C3                      u680 07D2  
                    u681 07D1                      u697 06E1             __CFG_BORV$LO 0000  
                    wreg 0009             __CFG_LVP$OFF 0000                     l1011 06CF  
                   l1003 06C4                     l1021 06DC                     l1013 06D0  
                   l1005 06C7                     l1031 0730                     l1023 06DD  
                   l1015 06D1                     l1007 06CA                     l1041 079F  
                   l1033 073A                     l1025 06E6                     l1017 06D8  
                   l1009 06CD                     l1051 07BA                     l1035 074D  
                   l1027 06EF                     l1043 07A6                     l1019 06D9  
                   l1061 07E0                     l1053 07C4                     l1045 07AB  
                   l1037 0760                     l1029 070A                     l1055 07C8  
                   l1047 07AD                     l1039 079B                     l1057 07D2  
                   l1049 07B3                     l1059 07DD             _transmitBits 060B  
                   _LATA 010C                     _TMR0 0015                     _WPUA 020C  
           __CFG_WRT$OFF 0000                     _Tdir 0032                     _Tavg 0028  
                   _main 06C4                     _hold 0801                     _down 0800  
                   _init 05A6                     fsr0h 0005                     fsr1h 0007  
                   indf0 0000                     fsr0l 0004                     indf1 0001  
                   fsr1l 0006                     btemp 007E                     start 0002  
          __CFG_IESO$OFF 0000            __CFG_PLLEN$ON 0000                    ?_main 0070  
                  ?_init 0070          __end_of___awdiv 06C4          ___awdiv@divisor 0070  
        ___awdiv@counter 0075                    _PORTA 000C                    _TRISA 008C  
          __CFG_PWRTE$ON 0000           __CFG_FCMEN$OFF 0000                    _Ttemp 0030  
                  _Ttrip 0024                    main@i 0079           __CFG_BOREN$OFF 0000  
                  status 0003                    wtemp0 007E           __CFG_MCLRE$OFF 0000  
        __initialization 07E6             __end_of_main 07E6             __end_of_hold 0802  
           __end_of_down 0801             __end_of_init 05C0                   ??_main 0034  
                 ??_init 0070         ___awdiv@dividend 0072                   _ANSELA 018C  
                 _OSCCON 0099                   _WDTCON 0097                   _SWDTEN 04B8  
       __end_of_bitDelay 0595                   _Tdelta 0020                   _Target 0033  
                 _Tcount 002C                ??___awdiv 0074           __CFG_STVREN$ON 0000  
       ___awdiv@quotient 0077             __pdataCOMMON 007D  __end_of__initialization 07FD  
        isTouched@tcount 0070           __pcstackCOMMON 0070             __pidataBANK0 058E  
             __end_of_up 0803               __pbssBANK0 0020       __size_of_isTouched 000B  
     __size_of_initTouch 004B               __pmaintext 06C4                  _CPSCON0 001E  
                _CPSCON1 001F                ?_bitDelay 0070                  _Tactive 007B  
                ___awdiv 065B        __end_of_isTouched 05A6                  __ptext1 060B  
                __ptext2 059B                  __ptext3 0590                  __ptext4 05C0  
                __ptext5 05A6                  __ptext6 065B        __end_of_initTouch 060B  
             ??_bitDelay 0070                  clrloop0 0596     end_of_initialization 07FD  
          transmitBits@i 0073         __CFG_FOSC$INTOSC 0000            __pidataCOMMON 058D  
       transmitBits@i_74 0072      start_initialization 07E6            ?_transmitBits 0070  
             initTouch@c 0073               initTouch@i 0074              __pdataBANK0 003B  
            __pbssCOMMON 007A                ___latbits 0001            __pcstackBANK0 0034  
      __size_of_bitDelay 0005           ??_transmitBits 0071                 ?___awdiv 0070  
              _isTouched 059B         __CFG_WDTE$SWDTEN 0000                _initTouch 05C0  
              _newTarget 007A                clear_ram0 0595               ?_isTouched 0070  
             ?_initTouch 0070     __end_of_transmitBits 065B         __size_of___awdiv 0069  
               _bitDelay 0590            __size_of_main 0122            __size_of_init 001A  
            ??_isTouched 0070              ??_initTouch 0070        __CFG_CLKOUTEN$OFF 0000  
          __pstringtext1 0800            __pstringtext2 0801            __pstringtext3 0802  
             _OPTION_REG 0095    __size_of_transmitBits 0050  
